(lp0
F-4.95276403427124
aF-4.952645778656006
aF-4.948103904724121
aF4.759734630584717
aF4.761415481567383
aF4.757957935333252
aF-4.890801429748535
aF-4.892147064208984
aF-4.893388748168945
aF4.755483150482178
aF4.75789213180542
aF4.759490013122559
aF4.753108501434326
aF-4.85461950302124
aF-4.8531174659729
aF-4.85009241104126
aF-4.851244926452637
aF4.7771806716918945
aF4.757424354553223
aF4.761791229248047
aF-4.745019912719727
aF-4.749824523925781
aF-4.747485160827637
aF4.773519515991211
aF4.773770809173584
aF4.77603816986084
aF-4.709327220916748
aF-4.709217548370361
aF-4.70480489730835
aF4.791995048522949
aF4.794990062713623
aF4.792971134185791
aF-4.6643853187561035
aF-4.662898063659668
aF-4.661317348480225
aF-4.661730766296387
aF4.797538757324219
aF4.800546169281006
aF4.7971696853637695
aF-4.616661548614502
aF-4.612427234649658
aF-4.61226224899292
aF-4.610617160797119
aF4.801723003387451
aF4.8026604652404785
aF4.795858860015869
aF-4.530605792999268
aF-4.530477523803711
aF-4.528883934020996
aF4.819347381591797
aF4.8167948722839355
aF4.811384201049805
aF-4.486161708831787
aF-4.490834712982178
aF-4.486537933349609
aF4.831634521484375
aF4.830495357513428
aF4.818290710449219
aF-4.442426681518555
aF-4.440978527069092
aF-4.442150592803955
aF-4.43984317779541
aF4.8477911949157715
aF4.841835021972656
aF4.8296356201171875
aF-4.403464317321777
aF-4.404738426208496
aF-4.40119743347168
aF-4.400266647338867
aF4.846654891967773
aF4.845492362976074
aF4.84151554107666
aF-4.309121608734131
aF-4.304998397827148
aF-4.309447765350342
aF4.7798542976379395
aF4.774009704589844
aF4.776097297668457
aF-4.2684645652771
aF-4.265041828155518
aF-4.262198448181152
aF4.721086502075195
aF4.724661827087402
aF4.722162246704102
aF4.720891952514648
aF-4.217748641967773
aF-4.2156853675842285
aF-4.218793869018555
aF-4.2185258865356445
aF4.666733264923096
aF4.666964054107666
aF4.669741153717041
aF-4.167346477508545
aF-4.1725077629089355
aF-4.174307346343994
aF-4.172754764556885
aF4.62725830078125
aF4.62747859954834
aF4.623664855957031
aF-4.083010673522949
aF-4.0854620933532715
aF-4.085249423980713
aF4.5295586585998535
aF4.529097557067871
aF4.527246952056885
aF-4.046655654907227
aF-4.049747943878174
aF-4.0482707023620605
aF4.489444732666016
aF4.491546154022217
aF4.489694118499756
aF-4.006317138671875
aF-4.005582809448242
aF-4.009212017059326
aF-4.005769729614258
aF4.437942981719971
aF4.4420166015625
aF4.442811965942383
aF4.43776273727417
aF-3.968393325805664
aF-3.965149164199829
aF-3.9630911350250244
aF-3.964738607406616
aF4.396205902099609
aF4.39579963684082
aF4.3978424072265625
aF-3.871969223022461
aF-3.871220588684082
aF-3.8691484928131104
aF4.299710273742676
aF4.294280052185059
aF4.295633316040039
aF-3.840254783630371
aF-3.8364267349243164
aF-3.838705062866211
aF4.257419109344482
aF4.255733489990234
aF4.257688522338867
aF-3.801861047744751
aF-3.7986860275268555
aF-3.7997376918792725
aF-3.798252820968628
aF4.222720623016357
aF4.221653461456299
aF4.2235894203186035
aF-3.7634878158569336
aF-3.7609572410583496
aF-3.7589614391326904
aF-3.7574996948242188
aF4.2006916999816895
aF4.192284107208252
aF4.1929802894592285
aF-3.6846556663513184
aF-3.6851162910461426
aF-3.686098575592041
aF4.212585926055908
aF4.213948726654053
aF4.203719615936279
aF-3.6427342891693115
aF-3.640223264694214
aF-3.642409086227417
aF4.220737934112549
aF4.217920780181885
aF4.21441125869751
aF-3.612147808074951
aF-3.6102559566497803
aF-3.6112570762634277
aF-3.6104016304016113
aF4.232602119445801
aF4.235805511474609
aF4.233543872833252
aF-3.578270673751831
aF-3.5828912258148193
aF-3.5797653198242188
aF-3.580691337585449
aF4.241903781890869
aF4.244440078735352
aF4.2385640144348145
aF-3.499739408493042
aF-3.5019943714141846
aF-3.5012664794921875
aF-3.5010461807250977
aF4.277245044708252
aF4.2686052322387695
aF4.268664360046387
aF-3.4605700969696045
aF-3.459285020828247
aF-3.4579291343688965
aF4.256411075592041
aF4.253670692443848
aF4.2502570152282715
aF-3.4198787212371826
aF-3.416332483291626
aF-3.416142702102661
aF-3.413601875305176
aF4.207048416137695
aF4.207778453826904
aF4.203232765197754
aF-3.3757550716400146
aF-3.3722546100616455
aF-3.3743419647216797
aF-3.3786115646362305
aF4.158773899078369
aF4.153775215148926
aF4.154972076416016
aF-3.304593801498413
aF-3.3039519786834717
aF-3.302128553390503
aF-3.299682855606079
aF4.069413185119629
aF4.065122127532959
aF4.064675331115723
aF-3.2720346450805664
aF-3.2714076042175293
aF-3.271817684173584
aF-3.2688450813293457
aF4.032115459442139
aF4.0300774574279785
aF4.030186176300049
aF-3.2411680221557617
aF-3.240554094314575
aF-3.240969657897949
aF-3.2391231060028076
aF3.989849805831909
aF3.992799758911133
aF3.9951181411743164
aF-3.2014598846435547
aF-3.2046148777008057
aF-3.2076945304870605
aF3.9470221996307373
aF3.948837995529175
aF3.952227830886841
aF-3.1346242427825928
aF-3.1366701126098633
aF-3.137038469314575
aF-3.137873649597168
aF3.865058660507202
aF3.8668296337127686
aF3.8668994903564453
aF-3.1050260066986084
aF-3.10599946975708
aF-3.1069045066833496
aF-3.103494882583618
aF3.8262462615966797
aF3.8253095149993896
aF3.8253676891326904
aF-3.0603835582733154
aF-3.0592527389526367
aF-3.0580594539642334
aF-3.0594282150268555
aF3.773925304412842
aF3.7698841094970703
aF3.772132158279419
aF3.7753701210021973
aF-3.024989366531372
aF-3.022834539413452
aF-3.0268704891204834
aF-3.0235488414764404
aF3.731642961502075
aF3.731837749481201
aF3.734588623046875
aF3.731470823287964
aF-2.9579691886901855
aF-2.956833839416504
aF-2.9607603549957275
aF-2.9605212211608887
aF3.6509811878204346
aF3.652188539505005
aF3.6512491703033447
aF-2.9285202026367188
aF-2.9284145832061768
aF-2.9272310733795166
aF-2.924973487854004
aF3.6136703491210938
aF3.609217882156372
aF3.6118741035461426
aF-2.890671491622925
aF-2.88956880569458
aF-2.887904167175293
aF-2.8876867294311523
aF3.5650081634521484
aF3.566178321838379
aF3.563211441040039
aF-2.853238344192505
aF-2.8516571521759033
aF-2.8500187397003174
aF-2.850804328918457
aF3.519912004470825
aF3.5225703716278076
aF3.5166122913360596
aF-2.779526472091675
aF-2.78385591506958
aF-2.7847023010253906
aF-2.7830512523651123
aF3.437059164047241
aF3.4366941452026367
aF3.4372448921203613
aF-2.7481861114501953
aF-2.748608350753784
aF-2.7504189014434814
aF-2.749755620956421
aF3.3953635692596436
aF3.392629623413086
aF3.394700050354004
aF3.3942623138427734
aF-2.716982364654541
aF-2.715914011001587
aF-2.716701030731201
aF-2.7174272537231445
aF3.3602330684661865
aF3.3575193881988525
aF3.355215311050415
aF3.3542892932891846
aF-2.6865508556365967
aF-2.686922788619995
aF-2.686762571334839
aF-2.685598134994507
aF3.3219408988952637
aF3.3235528469085693
aF3.3207831382751465
aF-2.6233558654785156
aF-2.6228015422821045
aF-2.6221923828125
aF-2.6210639476776123
aF3.2428536415100098
aF3.24066424369812
aF3.2426342964172363
aF-2.5946710109710693
aF-2.5950489044189453
aF-2.59260892868042
aF-2.5947155952453613
aF3.202972412109375
aF3.205447196960449
aF3.2055304050445557
aF-2.5647099018096924
aF-2.564178466796875
aF-2.5635929107666016
aF-2.5638644695281982
aF3.171121835708618
aF3.1721878051757812
aF3.1713435649871826
aF-2.5290207862854004
aF-2.5289530754089355
aF-2.5265772342681885
aF-2.527304172515869
aF3.1260581016540527
aF3.1248250007629395
aF3.125349760055542
aF-2.468039035797119
aF-2.467097282409668
aF-2.4647810459136963
aF-2.4619762897491455
aF-2.4630861282348633
aF3.045161485671997
aF3.0475106239318848
aF3.0439960956573486
aF-2.436192512512207
aF-2.436525583267212
aF-2.4341890811920166
aF-2.433983087539673
aF3.008462429046631
aF3.0090785026550293
aF3.0109574794769287
aF3.0061492919921875
aF-2.4017865657806396
aF-2.399102210998535
aF-2.4019761085510254
aF-2.4004857540130615
aF-2.200575828552246
aF2.96875
aF2.9693541526794434
aF2.9677155017852783
aF2.967759847640991
aF-2.3714358806610107
aF-2.370065689086914
aF-2.369500160217285
aF-2.3680331707000732
aF-2.2197201251983643
aF-2.124232769012451
aF-2.1215109825134277
aF2.927802324295044
aF2.9296858310699463
aF2.931943655014038
aF2.927232503890991
aF-2.3113622665405273
aF-2.308779001235962
aF-2.307403564453125
aF-2.309731960296631
aF-2.1465370655059814
aF-2.0994961261749268
aF-2.07572340965271
aF-2.071408987045288
aF-2.0703647136688232
aF2.8558120727539062
aF2.858490467071533
aF2.8552002906799316
aF-2.2684054374694824
aF-2.266282320022583
aF-2.2682323455810547
aF-2.2656049728393555
aF-2.2584164142608643
aF-2.1871917247772217
aF-2.111583948135376
aF-2.0721311569213867
aF-2.040088653564453
aF-2.0374746322631836
aF-2.036452531814575
aF2.815120220184326
aF2.8123462200164795
aF2.8115930557250977
aF-2.134242534637451
aF-2.1073920726776123
aF-2.0651659965515137
aF-2.0529370307922363
aF-2.03584361076355
aF-2.0118870735168457
aF-2.0093090534210205
aF-2.0111207962036133
aF2.7713301181793213
aF2.7735178470611572
aF2.7756521701812744
aF-1.9869492053985596
aF-1.986040472984314
aF-1.983495831489563
aF-1.9805151224136353
aF2.735656499862671
aF2.736189126968384
aF2.7387006282806396
aF-1.9332196712493896
aF-1.9342989921569824
aF-1.9318203926086426
aF-1.9300845861434937
aF-1.9255856275558472
aF2.6712188720703125
aF2.672529935836792
aF2.6702022552490234
aF-1.9080731868743896
aF-1.9072134494781494
aF-1.9059277772903442
aF-1.9038316011428833
aF-1.9043930768966675
aF2.637239933013916
aF2.6397132873535156
aF2.6362247467041016
aF-1.8752552270889282
aF-1.8759386539459229
aF-1.8761978149414062
aF-1.87413489818573
aF-1.8720353841781616
aF2.595771551132202
aF2.597041606903076
aF2.593987226486206
aF-1.8534127473831177
aF-1.8525829315185547
aF-1.851714015007019
aF-1.849678874015808
aF-1.85173499584198
aF2.5634968280792236
aF2.5648019313812256
aF2.5633692741394043
aF2.5638015270233154
aF-1.7957067489624023
aF-1.7952362298965454
aF-1.7932647466659546
aF-1.7908927202224731
aF2.491077184677124
aF2.4878666400909424
aF2.4872121810913086
aF2.4850096702575684
aF-1.7654157876968384
aF-1.7638750076293945
aF-1.7641000747680664
aF-1.7621265649795532
aF2.445385456085205
aF2.446624755859375
aF2.446711540222168
aF2.4452741146087646
aF-1.7336235046386719
aF-1.732467532157898
aF-1.7334034442901611
aF-1.7339438199996948
aF2.405088424682617
aF2.4073922634124756
aF2.4063899517059326
aF-1.7106482982635498
aF-1.7123154401779175
aF-1.7114874124526978
aF-1.7085237503051758
aF2.3754241466522217
aF2.3730509281158447
aF2.373129367828369
aF2.3749494552612305
aF-1.6569452285766602
aF-1.6558445692062378
aF-1.6550503969192505
aF-1.6542210578918457
aF-1.651998519897461
aF2.301018714904785
aF2.2983591556549072
aF2.3001668453216553
aF-1.6330256462097168
aF-1.633289098739624
aF-1.631834864616394
aF-1.6296762228012085
aF-1.6294981241226196
aF2.2709848880767822
aF2.2656137943267822
aF2.2663652896881104
aF-1.601895809173584
aF-1.601497769355774
aF-1.6007343530654907
aF-1.5989471673965454
aF-1.5971286296844482
aF2.2273716926574707
aF2.225795269012451
aF2.2261950969696045
aF-1.5818638801574707
aF-1.5801637172698975
aF-1.5790846347808838
aF-1.5773216485977173
aF-1.575852870941162
aF2.1934990882873535
aF2.194934368133545
aF2.1956605911254883
aF-1.541595458984375
aF-1.5418455600738525
aF-1.5420604944229126
aF-1.541289210319519
aF-1.540168285369873
aF2.1309218406677246
aF2.131666898727417
aF2.1330173015594482
aF-1.517329216003418
aF-1.5257214307785034
aF2.100503444671631
aF2.094215154647827
aF2.096179246902466
aF-1.4900786876678467
aF-1.4989442825317383
aF2.057903528213501
aF2.059560775756836
aF2.0592939853668213
aF-1.467084527015686
aF-1.5151549577713013
aF2.0208611488342285
aF2.0218708515167236
aF2.0222229957580566
aF-1.4872137308120728
aF-1.5359501838684082
aF1.9555952548980713
aF1.9563127756118774
aF1.9542999267578125
aF1.9558334350585938
aF-1.487099528312683
aF-1.5026546716690063
aF-1.524200439453125
aF1.9146015644073486
aF1.914424180984497
aF1.9156718254089355
aF1.9151216745376587
aF-1.4948066473007202
aF-1.4930446147918701
aF-1.5128790140151978
aF1.8817557096481323
aF1.8835957050323486
aF1.8853998184204102
aF1.8802363872528076
aF-1.4843186140060425
aF-1.483437418937683
aF-1.4850374460220337
aF-1.483814001083374
aF-1.4867366552352905
aF1.845716118812561
aF1.842155933380127
aF1.8436377048492432
aF1.8450838327407837
aF-1.384567379951477
aF-1.3882474899291992
aF-1.4212250709533691
aF1.7629542350769043
aF1.7635959386825562
aF1.762035608291626
aF1.7628750801086426
aF-1.3347108364105225
aF1.7319749593734741
aF1.7315407991409302
aF1.7300050258636475
aF1.73056161403656
aF-1.2872767448425293
aF1.6921517848968506
aF1.6919859647750854
aF1.69048273563385
aF-1.254780650138855
aF1.6555465459823608
aF1.652841329574585
aF1.653151273727417
aF-1.2215116024017334
aF1.5989326238632202
aF1.6000028848648071
aF1.601535439491272
aF-1.2055784463882446
aF1.5696440935134888
aF1.5704528093338013
aF1.5683231353759766
aF-1.1894901990890503
aF1.5352860689163208
aF1.5356028079986572
aF1.5349398851394653
aF-1.1706197261810303
aF1.497320532798767
aF1.4985531568527222
aF1.4990617036819458
aF-1.1285743713378906
aF1.4303796291351318
aF1.428464412689209
aF1.4280635118484497
aF-1.102751612663269
aF1.3927010297775269
aF1.3934167623519897
aF1.3902242183685303
aF1.3577704429626465
aF1.357836365699768
aF1.3582950830459595
aF-1.0546259880065918
aF1.3198446035385132
aF1.3205217123031616
aF1.3201488256454468
aF-1.0034575462341309
aF1.248005747795105
aF1.2492260932922363
aF1.2473220825195312
aF-0.9711283445358276
aF1.2083427906036377
aF1.2095242738723755
aF1.2078676223754883
aF-0.9474319815635681
aF1.1791402101516724
aF1.180293083190918
aF1.1772141456604004
aF-0.9179166555404663
aF1.139000654220581
aF1.1401143074035645
aF1.139790415763855
aF-0.8635138273239136
aF1.0721054077148438
aF1.0708236694335938
aF1.0710163116455078
aF-0.8404799699783325
aF1.0459661483764648
aF1.0460143089294434
aF1.0453903675079346
aF-0.8194459676742554
aF1.019034504890442
aF1.019555687904358
aF1.0192638635635376
aF-0.7890394330024719
aF0.979492723941803
aF0.9802981019020081
aF0.9809320569038391
aF-0.707080602645874
aF-0.7330207824707031
aF0.9117456674575806
aF0.9095218777656555
aF0.9103929996490479
aF-0.6877276301383972
aF-0.7087591886520386
aF-0.708824098110199
aF0.8799580335617065
aF0.8806815147399902
aF0.8813878893852234
aF-0.6687943339347839
aF-0.6836344003677368
aF-0.6851321458816528
aF0.8515741229057312
aF0.8508187532424927
aF0.851633608341217
aF-0.6540653705596924
aF-0.654511570930481
aF-0.6528302431106567
aF0.8109530806541443
aF0.8115102052688599
aF0.8120512962341309
aF0.8108084201812744
aF-0.5869633555412292
aF-0.5925036072731018
aF-0.5965401530265808
aF0.7419875860214233
aF0.7420207858085632
aF0.7427315711975098
aF-0.5636588931083679
aF0.7037741541862488
aF0.7039295434951782
aF0.7041799426078796
aF0.704416036605835
aF-0.5297479629516602
aF0.6629742980003357
aF0.6632101535797119
aF0.6635356545448303
aF-0.49872496724128723
aF0.623529314994812
aF0.6231693625450134
aF0.6236692070960999
aF-0.412739634513855
aF-0.41314148902893066
aF-0.41277259588241577
aF-0.4130704700946808
aF0.5546960830688477
aF0.5544631481170654
aF0.554390549659729
aF-0.379649817943573
aF-0.37931475043296814
aF-0.3796081840991974
aF-0.380527526140213
aF-0.3815150558948517
aF0.5228433609008789
aF0.5228675007820129
aF0.5223932266235352
aF-0.353898286819458
aF-0.3536534607410431
aF-0.3539958596229553
aF-0.35380977392196655
aF0.4889707863330841
aF0.48929697275161743
aF0.48938536643981934
aF-0.3294951021671295
aF-0.3294057846069336
aF-0.3295861482620239
aF-0.32920557260513306
aF0.4560563862323761
aF0.45614853501319885
aF0.45523983240127563
aF-0.2843282222747803
aF-0.28467315435409546
aF-0.2845906913280487
aF-0.2842023968696594
aF-0.28380870819091797
aF0.39518871903419495
aF0.39545249938964844
aF0.394787460565567
aF-0.25561490654945374
aF-0.255709171295166
aF-0.2554735839366913
aF-0.2553945481777191
aF-0.25530990958213806
aF0.35589152574539185
aF0.35612916946411133
aF0.3554760813713074
aF-0.23256537318229675
aF-0.2323562204837799
aF-0.23228996992111206
aF-0.23246419429779053
aF-0.23233836889266968
aF0.3247324526309967
aF0.32374274730682373
aF0.3240024745464325
aF-0.20484144985675812
aF-0.2047443687915802
aF-0.2046429067850113
aF-0.20471042394638062
aF-0.204599991440773
aF0.2862136662006378
aF0.2864491641521454
aF0.286101758480072
aF-0.1943768411874771
aF-0.19424371421337128
aF-0.194230318069458
aF-0.19437740743160248
aF-0.19456078112125397
aF0.27232304215431213
aF0.2718300223350525
aF0.2718370258808136
aF-0.19770945608615875
aF-0.19744795560836792
aF-0.19735032320022583
aF-0.19741587340831757
aF-0.19739317893981934
aF0.27610915899276733
aF0.27625060081481934
aF0.2765151858329773
aF-0.2001611888408661
aF-0.20015114545822144
aF-0.20005179941654205
aF-0.19982118904590607
aF-0.20009396970272064
aF0.2795987129211426
aF0.2792220413684845
aF0.2794894874095917
aF-0.21436867117881775
aF-0.21440358459949493
aF-0.2142518311738968
aF-0.21427707374095917
aF-0.21443329751491547
aF0.2996355891227722
aF0.2989068329334259
aF0.2990536391735077
aF-0.26988011598587036
aF-0.26969432830810547
aF-0.2695598900318146
aF-0.2695904076099396
aF-0.2700692415237427
aF0.3746259808540344
aF0.37470105290412903
aF0.3750016391277313
aF-0.29583439230918884
aF-0.2956297993659973
aF-0.29548123478889465
aF-0.29563671350479126
aF0.40831997990608215
aF0.40866395831108093
aF0.40906354784965515
aF0.40831053256988525
aF-0.3202373683452606
aF-0.32021796703338623
aF-0.3203260600566864
aF-0.32056087255477905
aF0.44216790795326233
aF0.4421187937259674
aF0.44233572483062744
aF-0.34548404812812805
aF-0.3454620838165283
aF-0.3450703024864197
aF-0.34568411111831665
aF0.47579336166381836
aF0.47626811265945435
aF0.47599366307258606
aF0.4756346344947815
aF-0.3931441009044647
aF-0.3928782045841217
aF-0.39424213767051697
aF-0.3942849934101105
aF0.5368656516075134
aF0.5367332100868225
aF0.5366727709770203
aF0.5368520021438599
aF-0.4229251444339752
aF-0.42437809705734253
aF-0.42538467049598694
aF-0.42759013175964355
aF0.5672581195831299
aF0.5672065615653992
aF0.5673195719718933
aF0.5668022632598877
aF-0.4561411142349243
aF-0.4549160599708557
aF-0.45702263712882996
aF-0.45642757415771484
aF0.606460452079773
aF0.6064052581787109
aF0.60605388879776
aF0.6061617732048035
aF-0.5216096639633179
aF0.6458055377006531
aF0.6454452276229858
aF0.6459757685661316
aF0.6460911631584167
aF-0.5748817920684814
aF-0.5776945352554321
aF0.7151331305503845
aF0.7158467173576355
aF0.7149872779846191
aF0.7142226099967957
aF-0.601239025592804
aF-0.6015353798866272
aF0.7456498742103577
aF0.7437273859977722
aF0.7444546222686768
aF0.7451676726341248
aF-0.6282227039337158
aF-0.6289060711860657
aF-0.6288565993309021
aF0.7785210013389587
aF0.7790554761886597
aF0.7777552604675293
aF0.7782572507858276
aF-0.6649147868156433
aF-0.6656368970870972
aF-0.6650780439376831
aF0.8237470388412476
aF0.8240563869476318
aF0.8231944441795349
aF0.8235976696014404
aF-0.7215640544891357
aF-0.721659779548645
aF-0.7216023206710815
aF0.8926607370376587
aF0.8931346535682678
aF0.8933125138282776
aF0.8919407725334167
aF-0.7512809634208679
aF-0.7508084177970886
aF-0.7507485151290894
aF0.9282509684562683
aF0.9288881421089172
aF0.9279156923294067
aF0.9283699989318848
aF-0.7776576280593872
aF-0.7777602672576904
aF-0.7779931426048279
aF0.9622533321380615
aF0.9605196118354797
aF0.9614588022232056
aF0.9623796939849854
aF-0.8015760183334351
aF-0.8018344640731812
aF-0.8014655113220215
aF0.9917299151420593
aF0.992102324962616
aF0.9910646080970764
aF0.9917047023773193
aF-0.8497887253761292
aF-0.85086989402771
aF-0.8501548171043396
aF1.0516330003738403
aF1.0510472059249878
aF1.0514202117919922
aF1.0509529113769531
aF-0.8750013709068298
aF-0.8746163845062256
aF-0.874710738658905
aF1.0809824466705322
aF1.081892967224121
aF1.0807636976242065
aF1.0812937021255493
aF-0.9048129320144653
aF-0.9075149893760681
aF-0.9072678089141846
aF1.1204057931900024
aF1.121349573135376
aF1.1198298931121826
aF1.1205534934997559
aF-0.9389540553092957
aF-0.9380062818527222
aF-0.9391751289367676
aF1.1597295999526978
aF1.1605262756347656
aF1.1596759557724
aF1.1607866287231445
aF-0.9923235774040222
aF-0.9926396608352661
aF-0.993121325969696
aF1.2268708944320679
aF1.2269262075424194
aF1.2281012535095215
aF-1.0204555988311768
aF-1.023685336112976
aF-1.0232104063034058
aF1.2624796628952026
aF1.2621448040008545
aF1.2631573677062988
aF-1.050923228263855
aF-1.052849292755127
aF-1.0519630908966064
aF1.3000593185424805
aF1.2983040809631348
aF1.2989418506622314
aF-1.077614665031433
aF-1.079386591911316
aF-1.080926537513733
aF1.333377480506897
aF1.333439588546753
aF1.3322309255599976
aF-1.138182520866394
aF-1.1370326280593872
aF-1.1369339227676392
aF1.4038653373718262
aF1.4043669700622559
aF1.4030964374542236
aF-1.166395902633667
aF-1.165878176689148
aF-1.1655559539794922
aF1.4395071268081665
aF1.4389064311981201
aF1.4378280639648438
aF-1.2028039693832397
aF-1.2022695541381836
aF-1.2030702829360962
aF1.4845176935195923
aF1.4852794408798218
aF1.4841700792312622
aF-1.2233651876449585
aF-1.2232818603515625
aF-1.2224808931350708
aF1.5086519718170166
aF1.510127067565918
aF1.5078319311141968
aF-1.2788643836975098
aF-1.278052806854248
aF-1.2781765460968018
aF1.5773420333862305
aF1.5783967971801758
aF1.5774682760238647
aF-1.3031091690063477
aF-1.3042454719543457
aF-1.3046151399612427
aF1.607657790184021
aF1.6087325811386108
aF1.6095268726348877
aF-1.3290454149246216
aF-1.3279513120651245
aF-1.3305732011795044
aF1.6411765813827515
aF1.6415159702301025
aF1.6385282278060913
aF-1.3547180891036987
aF-1.3548736572265625
aF-1.353729248046875
aF1.66887629032135
aF1.670250415802002
aF1.671592354774475
aF-1.4178386926651
aF-1.4185305833816528
aF1.748913049697876
aF1.748738169670105
aF1.7469090223312378
aF-1.4338849782943726
aF-1.443011999130249
aF-1.4423621892929077
aF1.778116226196289
aF1.7776654958724976
aF1.7763551473617554
aF-1.468795657157898
aF-1.4679211378097534
aF-1.4700443744659424
aF-1.470755696296692
aF1.8122345209121704
aF1.8103857040405273
aF1.8112833499908447
aF-1.5016978979110718
aF-1.5027705430984497
aF-1.503527283668518
aF-1.503407597541809
aF1.850775957107544
aF1.8525856733322144
aF1.8498080968856812
aF1.8501192331314087
aF-1.5654915571212769
aF-1.5683295726776123
aF-1.5670338869094849
aF1.9311108589172363
aF1.931814193725586
aF1.9318856000900269
aF1.9310264587402344
aF-1.5540685653686523
aF-1.5831389427185059
aF-1.5951892137527466
aF1.9645271301269531
aF1.963441252708435
aF1.9635159969329834
aF1.9638512134552002
aF-1.5702569484710693
aF2.003606081008911
aF2.0055651664733887
aF2.0022671222686768
aF2.0041449069976807
aF2.045025110244751
aF2.044213056564331
aF2.041792631149292
aF2.0433945655822754
aF-1.609819769859314
aF-1.6078236103057861
aF-1.561252474784851
aF-1.5592520236968994
aF2.1066980361938477
aF2.108757734298706
aF2.1062755584716797
aF2.1069633960723877
aF-1.5572760105133057
aF-1.5540015697479248
aF-1.5542141199111938
aF-1.5502443313598633
aF-1.5500729084014893
aF2.1404874324798584
aF2.1383001804351807
aF2.13802170753479
aF-1.5703208446502686
aF-1.5705779790878296
aF-1.5682092905044556
aF-1.5664583444595337
aF-1.5653225183486938
aF2.167590856552124
aF2.168675661087036
aF2.16971755027771
aF-1.601292371749878
aF-1.5979211330413818
aF-1.5974878072738647
aF-1.5950459241867065
aF-1.5955315828323364
aF2.2118289470672607
aF2.210585355758667
aF2.2103028297424316
aF-1.6478272676467896
aF-1.6467329263687134
aF-1.6456049680709839
aF-1.6441044807434082
aF-1.6442594528198242
aF2.2805428504943848
aF2.275470495223999
aF2.277604579925537
aF-1.6775492429733276
aF-1.6757439374923706
aF-1.673905849456787
aF-1.671691656112671
aF-1.6697885990142822
aF2.316051483154297
aF2.314411163330078
aF2.3095595836639404
aF-1.7006756067276
aF-1.6984964609146118
aF-1.699417233467102
aF-1.6982122659683228
aF-1.696624755859375
aF2.344024896621704
aF2.3402321338653564
aF2.3239407539367676
aF-1.7328827381134033
aF-1.730662226676941
aF-1.7291162014007568
aF-1.728242039680481
aF2.3510513305664062
aF2.330925226211548
aF-1.7892870903015137
aF-1.787395715713501
aF-1.7854697704315186
aF-1.7842357158660889
aF-1.7822386026382446
aF2.4014081954956055
aF-1.8191348314285278
aF-1.8179514408111572
aF-1.8178390264511108
aF-1.813258171081543
aF-1.8130707740783691
aF2.473982572555542
aF-1.846626877784729
aF-1.8499253988265991
aF-1.8475550413131714
aF-1.8421564102172852
aF-1.839346170425415
aF2.5437800884246826
aF-1.877065658569336
aF-1.8754594326019287
aF-1.8738155364990234
aF-1.8713757991790771
aF-1.8696579933166504
aF2.5762999057769775
aF-1.9327070713043213
aF-1.9314395189285278
aF-1.9297432899475098
aF-1.9272308349609375
aF-1.9250696897506714
aF2.54477858543396
aF-1.9566459655761719
aF-1.9529975652694702
aF-1.9516754150390625
aF-1.949134349822998
aF2.5833709239959717
aF-1.9830330610275269
aF-1.9829245805740356
aF-1.9819761514663696
aF-1.980190634727478
aF2.6411776542663574
aF-2.0164196491241455
aF-2.015939950942993
aF-2.0146093368530273
aF-2.0172688961029053
aF-2.0146424770355225
aF2.7076480388641357
aF-2.0758769512176514
aF-2.0745439529418945
aF-2.0764753818511963
aF-2.075878381729126
aF2.827998161315918
aF-2.3466999530792236
aF-2.107802152633667
aF-2.106865406036377
aF-2.1050467491149902
aF-2.107786178588867
aF2.8796918392181396
aF-2.377276659011841
aF-2.130866527557373
aF-2.1349990367889404
aF-2.1331534385681152
aF-2.1312649250030518
aF2.9108893871307373
aF-2.40271258354187
aF-2.40002703666687
aF-2.293626546859741
aF-2.1611521244049072
aF-2.159327507019043
aF-2.163011074066162
aF-2.1632251739501953
aF2.948958158493042
aF2.843383550643921
aF-2.4706103801727295
aF-2.472747802734375
aF-2.4704244136810303
aF-2.4671733379364014
aF-2.453333854675293
aF-2.2955617904663086
aF-2.292809247970581
aF-2.290013074874878
aF-2.280179023742676
aF3.0300092697143555
aF2.979471206665039
aF-2.5029115676879883
aF-2.5019469261169434
aF-2.500485420227051
aF-2.499418020248413
aF3.0625133514404297
aF3.042905330657959
aF-2.53792142868042
aF-2.539189338684082
aF-2.5372512340545654
aF-2.5352628231048584
aF3.1070570945739746
aF-2.5737452507019043
aF-2.5718326568603516
aF-2.5739657878875732
aF-2.5724010467529297
aF3.15157151222229
aF3.1042838096618652
aF-2.64111065864563
aF-2.6424081325531006
aF-2.6403861045837402
aF-2.6406373977661133
aF3.231771945953369
aF3.2328546047210693
aF3.235757827758789
aF-2.6761322021484375
aF-2.674607276916504
aF-2.6734983921051025
aF-2.6732735633850098
aF3.2606189250946045
aF-2.7034800052642822
aF-2.703418731689453
aF-2.702350616455078
aF-2.7017011642456055
aF-2.7340190410614014
aF-2.732511520385742
aF-2.7323849201202393
aF-2.7322001457214355
aF-2.8005619049072266
aF-2.8019425868988037
aF-2.798867702484131
aF-2.803539276123047
aF-2.8296637535095215
aF-2.8325281143188477
aF-2.8294196128845215
aF-2.8262572288513184
aF-2.8665895462036133
aF-2.8674848079681396
aF-2.8678195476531982
aF-2.8666014671325684
aF-2.898625373840332
aF-2.900521993637085
aF-2.899845600128174
aF-2.8981070518493652
aF-2.9776902198791504
aF-2.9760818481445312
aF-2.973388195037842
aF-2.9747314453125
aF-2.9982669353485107
aF-2.9987080097198486
aF-2.9995996952056885
aF-2.9993958473205566
aF-3.0367870330810547
aF-3.0335769653320312
aF-3.0370733737945557
aF-3.0394575595855713
aF-3.068329095840454
aF-3.065610647201538
aF-3.0706968307495117
aF-3.073087692260742
aF-3.1432859897613525
aF-3.142638921737671
aF-3.146202325820923
aF-3.1443514823913574
aF-3.180575132369995
aF-3.178832530975342
aF-3.1791834831237793
aF-3.214080333709717
aF-3.2129263877868652
aF-3.210618019104004
aF-3.2125942707061768
aF-3.2477569580078125
aF-3.247680187225342
aF-3.2469868659973145
aF-3.245131254196167
aF-3.3176558017730713
aF-3.3164398670196533
aF-3.3151566982269287
aF-3.314915657043457
aF-3.345113515853882
aF-3.3545382022857666
aF-3.354912519454956
aF-3.3963706493377686
aF-3.397944688796997
aF-3.3977468013763428
aF-3.428964376449585
aF-3.4311840534210205
aF-3.430476188659668
aF-3.428558349609375
aF-3.501204013824463
aF-3.503434658050537
aF-3.503272771835327
aF-3.5065038204193115
aF-3.5480592250823975
aF-3.546204090118408
aF-3.5483644008636475
aF-3.5475289821624756
aF-3.592672824859619
aF-3.591376304626465
aF-3.5894176959991455
aF-3.6232149600982666
aF-3.6254591941833496
aF-3.623476982116699
aF-3.7015295028686523
aF-3.6978394985198975
aF-3.7000937461853027
aF-3.700462818145752
aF-3.7329723834991455
aF-3.734098434448242
aF-3.7351434230804443
aF-3.7379214763641357
aF-3.776231288909912
aF-3.776740550994873
aF-3.780219316482544
aF-3.780564308166504
aF4.165633678436279
aF-3.8177273273468018
aF-3.816378355026245
aF-3.8149516582489014
aF4.197777271270752
aF4.196165561676025
aF4.200016975402832
aF4.200082778930664
aF-3.8943262100219727
aF-3.8923895359039307
aF-3.8891313076019287
aF-3.8901467323303223
aF4.281895160675049
aF4.284575462341309
aF4.285296440124512
aF-3.9353673458099365
aF-3.9352834224700928
aF-3.9338653087615967
aF-3.9298648834228516
aF4.326240062713623
aF4.330211639404297
aF4.326543807983398
aF-3.966817855834961
aF-3.970506429672241
aF-3.9671785831451416
aF-3.9700639247894287
aF4.367539405822754
aF4.37091588973999
aF4.367874622344971
aF-4.011564254760742
aF-4.009551048278809
aF-4.013801574707031
aF4.417204856872559
aF4.418072700500488
aF4.414383888244629
aF-4.092983722686768
aF-4.0928449630737305
aF-4.091335773468018
aF4.500950813293457
aF4.5017619132995605
aF4.505715370178223
aF-4.140930652618408
aF-4.1428022384643555
aF-4.139403343200684
aF-4.137864589691162
aF4.553599834442139
aF4.554436206817627
aF4.548016548156738
aF-4.18170166015625
aF-4.18683385848999
aF-4.1833953857421875
aF-4.185735702514648
aF4.598337650299072
aF4.601812362670898
aF4.597333908081055
aF-4.230309963226318
aF-4.230201721191406
aF-4.22869348526001
aF4.648351669311523
aF4.649890899658203
aF4.647378444671631
aF-4.3160481452941895
aF-4.317234992980957
aF-4.313017845153809
aF4.742605209350586
aF4.7468647956848145
aF4.745691776275635
aF4.743751525878906
aF-4.364676475524902
aF-4.361926078796387
aF-4.358421325683594
aF-4.356169700622559
aF4.784280300140381
aF4.787809371948242
aF4.777791976928711
aF-4.416653156280518
aF-4.413863182067871
aF-4.4123334884643555
aF-4.408023357391357
aF4.790843963623047
aF4.7890625
aF4.78785514831543
aF-4.448450088500977
aF-4.445636749267578
aF-4.448152542114258
aF4.769553184509277
aF4.765683174133301
aF4.763747692108154
aF-4.534812927246094
aF-4.533985614776611
aF-4.531698226928711
aF4.74097204208374
aF4.74532413482666
aF4.739293575286865
aF-4.577953338623047
aF-4.575822830200195
aF-4.583243370056152
aF-4.58160924911499
aF4.744020938873291
aF4.745615482330322
aF4.733994007110596
aF-4.624331951141357
aF-4.62216854095459
aF-4.623373985290527
aF-4.627937316894531
aF4.732302665710449
aF4.735953330993652
aF4.72702169418335
aF-4.676387310028076
aF-4.675583839416504
aF-4.678862571716309
aF4.7352681159973145
aF4.726466178894043
aF4.730106830596924
aF4.734354496002197
aF-4.761441707611084
aF-4.762706279754639
aF-4.765979766845703
aF4.7153449058532715
aF4.7190632820129395
aF4.71000862121582
aF-4.802021503448486
aF-4.808329105377197
aF-4.80462646484375
aF-4.800830841064453
aF4.700961589813232
aF4.704051494598389
aF4.695735454559326
aF4.6972150802612305
aF-4.852809906005859
aF-4.856285095214844
aF-4.85894250869751
aF4.699986934661865
aF4.698094367980957
aF4.69325590133667
aF-4.90614128112793
aF-4.903170108795166
aF-4.899387836456299
aF4.68680477142334
aF4.6884379386901855
aF4.69212007522583
aF-5.01008415222168
aF-5.009932041168213
aF-5.011123180389404
aF4.6830573081970215
aF4.682583332061768
aF4.682733058929443
aF-5.057467937469482
aF-5.056671142578125
aF-5.0615925788879395
aF-5.060585021972656
aF4.680771350860596
aF4.683897018432617
aF4.6724066734313965
aF-5.102538108825684
aF-5.101717472076416
aF-5.105177402496338
aF4.672850608825684
aF4.671689987182617
aF4.666786193847656
aF4.668338298797607
aF-5.157890796661377
aF-5.154836177825928
aF-5.156824111938477
aF4.667097091674805
aF4.669558048248291
aF4.664597988128662
aF-5.256792068481445
aF-5.257368087768555
aF-5.249688625335693
aF4.65165376663208
aF4.64680814743042
aF4.638903617858887
aF4.643439292907715
aF-5.299459457397461
aF-5.301614284515381
aF-5.300681114196777
aF4.626231670379639
aF4.6309404373168945
aF4.635561466217041
aF4.627496719360352
aF-5.351027011871338
aF-5.350925445556641
aF-5.352956771850586
aF4.624621391296387
aF4.621898174285889
aF4.626509666442871
aF-5.408669948577881
aF-5.408541202545166
aF-5.407549858093262
aF4.627411842346191
aF4.624755382537842
aF4.61751651763916
aF4.620628833770752
aF-5.518856525421143
aF-5.517268180847168
aF-5.51253604888916
aF4.609625816345215
aF4.609894752502441
aF4.614587306976318
aF-5.57330322265625
aF-5.57626485824585
aF-5.579869747161865
aF4.6112542152404785
aF4.615283966064453
aF4.61998176574707
aF-5.634172439575195
aF-5.6332855224609375
aF-5.629220008850098
aF4.626501083374023
aF4.626079082489014
aF4.620235919952393
aF-5.681759357452393
aF-5.687005519866943
aF-5.685204982757568
aF3.870361804962158
aF3.8624331951141357
aF3.8687381744384766
aF3.866661310195923
aF-5.804466724395752
aF-5.807498455047607
aF-5.805741786956787
aF3.8814709186553955
aF3.8856091499328613
aF3.883573532104492
aF3.8806838989257812
aF-5.865230083465576
aF-5.864338397979736
aF-5.865670204162598
aF3.8839023113250732
aF3.888885259628296
aF3.879267930984497
aF3.877960443496704
aF3.8796300888061523
aF-5.923814296722412
aF-5.92759895324707
aF-5.9273362159729
aF3.8819546699523926
aF3.8754327297210693
aF3.8741824626922607
aF3.878993034362793
aF-5.978521823883057
aF-5.983087062835693
aF3.867147207260132
aF3.8721084594726562
aF3.874683141708374
aF3.8740897178649902
aF-6.108651638031006
aF-6.108546257019043
aF-6.112290382385254
aF3.869938611984253
aF3.8703300952911377
aF3.8652000427246094
aF3.8638579845428467
aF-6.163865566253662
aF-6.165326118469238
aF-6.165063858032227
aF3.8560104370117188
aF3.8602592945098877
aF3.863654375076294
aF3.8599517345428467
aF-6.220059394836426
aF-6.223894119262695
aF3.8570542335510254
aF3.850473403930664
aF3.846909761428833
aF3.845594644546509
aF3.844973087310791
aF-6.281303882598877
aF-6.285250663757324
aF-6.282639980316162
aF3.8489904403686523
aF3.8321945667266846
aF3.837190628051758
aF3.841329574584961
aF-6.412989616394043
aF-6.408804416656494
aF-6.419869899749756
aF3.833735227584839
aF3.8381056785583496
aF3.8431894779205322
aF3.830840826034546
aF3.8318052291870117
aF-6.478386402130127
aF-6.475780010223389
aF3.836238384246826
aF3.832704544067383
aF3.8346149921417236
aF3.8261420726776123
aF-6.5387043952941895
aF-6.541089057922363
aF-6.539258003234863
aF3.8328683376312256
aF3.822957992553711
aF3.8264331817626953
aF3.8314216136932373
aF-6.618259429931641
aF-6.614054203033447
aF-6.616278171539307
aF3.8324923515319824
aF3.8336663246154785
aF3.8291749954223633
aF3.8237874507904053
aF-6.754430770874023
aF-6.7517805099487305
aF3.821730852127075
aF3.8125317096710205
aF3.8152544498443604
aF3.820307731628418
aF-6.823144912719727
aF-6.819757461547852
aF-6.822874069213867
aF3.8170082569122314
aF3.817397356033325
aF3.813673257827759
aF3.812272787094116
aF-6.904525279998779
aF-6.906085968017578
aF-6.907504558563232
aF3.817697048187256
aF3.8141214847564697
aF3.812871217727661
aF3.8171918392181396
aF3.807671308517456
aF-6.968422889709473
aF-6.971628189086914
aF-6.968841552734375
aF3.806814193725586
aF3.8072407245635986
aF3.8067715167999268
aF3.8094592094421387
aF-7.126247406005859
aF-7.1211161613464355
aF-7.131856441497803
aF3.80574107170105
aF3.8070297241210938
aF3.805788516998291
aF3.8085381984710693
aF3.809574604034424
aF-7.191046714782715
aF-7.207007884979248
aF-7.206747055053711
aF3.7997243404388428
aF3.8034420013427734
aF3.8070826530456543
aF3.7975456714630127
aF3.796095609664917
aF-7.271021842956543
aF-7.271721363067627
aF3.7966926097869873
aF3.792212724685669
aF3.797473192214966
aF3.791165590286255
aF-7.347250461578369
aF-7.356418609619141
aF3.7895126342773438
aF3.794929265975952
aF3.7937026023864746
aF3.7833383083343506
aF3.7876834869384766
aF-7.488327980041504
aF-7.504491329193115
aF-7.501654624938965
aF3.7830862998962402
aF3.7868430614471436
aF3.7723429203033447
aF3.772610902786255
aF3.7727930545806885
aF-7.583725452423096
aF-7.583564758300781
aF3.7702908515930176
aF3.774933099746704
aF3.779500961303711
aF3.77736496925354
aF3.774305820465088
aF-7.661381721496582
aF-7.674274921417236
aF-7.67493200302124
aF3.7794384956359863
aF3.771651268005371
aF3.7762115001678467
aF3.7657277584075928
aF3.7692861557006836
aF-7.748863697052002
aF-7.756557941436768
aF-7.759766101837158
aF3.7689626216888428
aF3.765282392501831
aF3.759838342666626
aF3.7626311779022217
aF3.767850399017334
aF-7.929744243621826
aF-7.93043851852417
aF3.794224739074707
aF3.7880055904388428
aF3.7909038066864014
aF3.7903645038604736
aF3.79478120803833
aF-8.010011672973633
aF-8.009082794189453
aF-8.016730308532715
aF3.8289954662323
aF3.8319454193115234
aF3.837341785430908
aF3.83254337310791
aF-8.110766410827637
aF-8.109786987304688
aF-8.10864543914795
aF3.8806815147399902
aF3.8820078372955322
aF3.8807120323181152
aF3.8801703453063965
aF3.8846237659454346
aF-8.201620101928711
aF-8.199711799621582
aF3.9239540100097656
aF3.9277853965759277
aF3.927293062210083
aF3.928410291671753
aF-8.405256271362305
aF-8.40605640411377
aF-8.401378631591797
aF4.0167083740234375
aF4.019719123840332
aF4.01922607421875
aF4.01521635055542
aF4.018819808959961
aF-8.505565643310547
aF-8.50187873840332
aF4.051224708557129
aF4.056844234466553
aF4.059815406799316
aF4.059268474578857
aF4.058628559112549
aF-8.590841293334961
aF-8.614686965942383
aF4.102129936218262
aF4.107734203338623
aF4.10809850692749
aF4.105786323547363
aF4.1094136238098145
aF-8.698892593383789
aF-8.698829650878906
aF-8.695027351379395
aF4.1515727043151855
aF4.151121616363525
aF4.149712562561035
aF4.153392791748047
aF-8.894497871398926
aF-8.897931098937988
aF4.243573188781738
aF4.2491936683654785
aF4.250387191772461
aF4.2506184577941895
aF-9.009105682373047
aF-9.00709342956543
aF4.297471523284912
aF4.294459819793701
aF4.297443866729736
aF4.299466609954834
aF4.301398754119873
aF-9.109732627868652
aF-9.119575500488281
aF4.348592758178711
aF4.349893569946289
aF4.353724956512451
aF4.348710060119629
aF-9.231377601623535
aF-9.23756217956543
aF4.395453929901123
aF4.39155387878418
aF4.391928195953369
aF4.393083095550537
aF4.395901203155518
aF-9.380823135375977
aF-9.381525039672852
aF4.417234897613525
aF4.411553382873535
aF4.410163402557373
aF4.411318778991699
aF4.402662754058838
aF-9.384222030639648
aF-9.378560066223145
aF4.406177997589111
aF4.403095245361328
aF4.404324531555176
aF4.407229423522949
aF4.410043239593506
aF-9.374862670898438
aF-9.377429008483887
aF4.398733615875244
aF4.398275852203369
aF4.392403602600098
aF4.39528751373291
aF-9.375483512878418
aF-9.369826316833496
aF4.400462627410889
aF4.393782615661621
aF4.3932037353515625
aF4.398748874664307
aF-9.358871459960938
aF-9.363346099853516
aF4.3984808921813965
aF4.393630027770996
aF4.382430553436279
aF4.388052940368652
aF4.390912055969238
aF-9.355311393737793
aF-9.347822189331055
aF4.3907060623168945
aF4.391170501708984
aF4.387073040008545
aF4.3864426612854
aF-9.326902389526367
aF-9.322199821472168
aF-9.320087432861328
aF4.383876323699951
aF4.387895107269287
aF4.378403186798096
aF4.383124828338623
aF-9.32949161529541
aF-9.337754249572754
aF-9.331938743591309
aF4.3786234855651855
aF4.382631778717041
aF4.387448787689209
aF4.3805084228515625
aF-9.322072982788086
aF-9.321096420288086
aF-9.315292358398438
aF4.371824264526367
aF4.374114513397217
aF4.377211093902588
aF4.378416538238525
aF4.369612693786621
aF-9.309022903442383
aF-9.307881355285645
aF4.372494220733643
aF4.372978687286377
aF4.369762420654297
aF4.365537643432617
aF4.365719795227051
aF-9.298855781555176
aF-9.293065071105957
aF4.374108791351318
aF4.368275165557861
aF4.368644714355469
aF4.366206169128418
aF-9.287266731262207
aF-9.283352851867676
aF4.358381271362305
aF4.357922554016113
aF4.362790107727051
aF4.368477821350098
aF-9.243778228759766
aF-9.269925117492676
aF4.354084014892578
aF4.360032558441162
aF4.361364364624023
aF4.348982334136963
aF4.351015567779541
aF-9.230645179748535
aF-9.254036903381348
aF4.352573394775391
aF4.357613563537598
aF4.3553009033203125
aF4.358340740203857
aF4.351273059844971
aF-9.248478889465332
aF-9.279435157775879
aF4.3483195304870605
aF4.34426736831665
aF4.345562934875488
aF4.339476585388184
aF4.342398166656494
aF-9.251639366149902
aF-9.256258964538574
aF4.3455095291137695
aF4.349625587463379
aF4.338153839111328
aF4.342073440551758
aF-9.249312400817871
aF-9.243553161621094
aF-9.248974800109863
aF4.3416972160339355
aF4.342144966125488
aF4.342495441436768
aF4.332669258117676
aF-9.239079475402832
aF-9.245655059814453
aF-9.239718437194824
aF4.331577777862549
aF4.328343391418457
aF4.334166526794434
aF4.3389892578125
aF-9.245494842529297
aF-9.239737510681152
aF-9.239500999450684
aF4.331649303436279
aF4.3303327560424805
aF4.330747127532959
aF4.325555324554443
aF4.328526020050049
aF-9.24697208404541
aF-9.241033554077148
aF4.330343246459961
aF4.328094005584717
aF4.322983264923096
aF4.326039791107178
aF4.329927444458008
aF-9.197981834411621
aF-9.207331657409668
aF4.32393741607666
aF4.327177047729492
aF4.319277763366699
aF4.320478439331055
aF-9.219732284545898
aF-9.213811874389648
aF4.323659896850586
aF4.316763401031494
aF4.321738243103027
aF4.318317890167236
aF-9.205716133117676
aF-9.205543518066406
aF4.308918476104736
aF4.313973426818848
aF4.310630798339844
aF4.309955596923828
aF-9.203835487365723
aF-9.203672409057617
aF4.3100690841674805
aF4.3087592124938965
aF4.308270454406738
aF4.3123064041137695
aF4.3144025802612305
aF-9.189360618591309
aF-9.198808670043945
aF4.310792446136475
aF4.31501579284668
aF4.30157470703125
aF4.306525707244873
aF4.311391353607178
aF17.25949478149414
aF-9.188222885131836
aF-9.184243202209473
aF4.299020290374756
aF4.3022990226745605
aF4.295299530029297
aF4.295602321624756
aF4.30045223236084
aF17.293283462524414
aF-9.194701194763184
aF-9.188796997070312
aF4.30705451965332
aF4.308487892150879
aF4.30055046081543
aF4.293421268463135
aF4.299196720123291
aF-9.172402381896973
aF-9.166512489318848
aF-9.165260314941406
aF4.287853717803955
aF4.292036056518555
aF4.296132564544678
aF4.29456090927124
aF-9.166336059570312
aF-9.16527271270752
aF-9.164992332458496
aF4.295445442199707
aF4.2996368408203125
aF4.288858413696289
aF4.292855262756348
aF-9.162843704223633
aF-9.158893585205078
aF-9.160567283630371
aF4.2919793128967285
aF4.29811429977417
aF4.29392147064209
aF4.290550231933594
aF4.2833356857299805
aF-9.153334617614746
aF-9.149393081665039
aF-9.147210121154785
aF4.289618015289307
aF4.294817924499512
aF4.289675235748291
aF4.281618595123291
aF4.279052734375
aF-9.139381408691406
aF-9.156780242919922
aF-9.15072250366211
aF4.284204959869385
aF4.289395809173584
aF4.282365798950195
aF4.28176212310791
aF4.283867835998535
aF-9.128525733947754
aF-9.134124755859375
aF4.282625675201416
aF4.275679588317871
aF4.279831409454346
aF4.273601055145264
aF4.279439926147461
aF-9.122719764709473
aF-9.11862850189209
aF4.275911331176758
aF4.274541854858398
aF4.270259380340576
aF4.266806125640869
aF-9.121964454650879
aF-9.113012313842773
aF4.274055004119873
aF4.267060279846191
aF4.271194934844971
aF4.268671989440918
aF-9.10446834564209
aF-9.108180046081543
aF4.268370151519775
aF4.2632293701171875
aF4.2654805183410645
aF4.252610206604004
aF-9.094888687133789
aF-9.09666633605957
aF4.264963626861572
aF4.251484394073486
aF4.255685329437256
aF4.260738849639893
aF4.254424571990967
aF-9.108415603637695
aF-9.096532821655273
aF4.256756782531738
aF4.261054515838623
aF4.261507511138916
aF4.252456188201904
aF4.247991561889648
aF-9.089987754821777
aF-9.083972930908203
aF4.260003566741943
aF4.248340129852295
aF4.2544121742248535
aF4.260403156280518
aF4.261597633361816
aF-9.090625762939453
aF-9.075809478759766
aF4.253670692443848
aF4.256081581115723
aF4.252754211425781
aF4.256857872009277
aF4.249550819396973
aF-9.078888893127441
aF-9.076796531677246
aF4.251251220703125
aF4.248952865600586
aF4.250317096710205
aF4.255359172821045
aF4.253706932067871
aF-9.073915481567383
aF-9.071833610534668
aF-9.069573402404785
aF4.249162673950195
aF4.239310264587402
aF4.2453694343566895
aF4.2475690841674805
aF4.2534613609313965
aF-9.060112953186035
aF-9.063932418823242
aF-9.067567825317383
aF4.2380828857421875
aF4.244319438934326
aF4.238215446472168
aF4.240495681762695
aF4.23038911819458
aF-9.061577796936035
aF-9.07227611541748
aF-9.06413459777832
aF4.228857517242432
aF4.2341389656066895
aF4.237449645996094
aF4.239726543426514
aF4.239073276519775
aF-9.051334381103516
aF-9.047310829162598
aF-9.045076370239258
aF4.234242916107178
aF4.234817981719971
aF4.2324628829956055
aF4.2300028800964355
aF4.227438449859619
aF-9.050909042358398
aF-9.051806449890137
aF-9.047608375549316
aF4.224030017852783
aF4.230246067047119
aF4.230710506439209
aF4.233918190002441
aF4.231349468231201
aF-9.034360885620117
aF-9.039209365844727
aF-9.036986351013184
aF4.220300674438477
aF4.2199015617370605
aF4.225076675415039
aF4.224486827850342
aF4.223797798156738
aF-9.034407615661621
aF-9.028430938720703
aF-9.031136512756348
aF4.226880073547363
aF4.217041492462158
aF4.21937370300293
aF4.224457263946533
aF4.216174602508545
aF-9.027639389038086
aF-9.033486366271973
aF-9.02831745147705
aF4.217461585998535
aF4.220832824707031
aF4.224115371704102
aF4.219727039337158
aF4.223770618438721
aF-9.010377883911133
aF-9.010333061218262
aF-9.004195213317871
aF4.2105302810668945
aF4.212943077087402
aF4.2143168449401855
aF4.214649200439453
aF-9.014132499694824
aF-9.0079927444458
aF4.209471225738525
aF4.209988117218018
aF4.201879978179932
aF4.205987930297852
aF4.210960388183594
aF-8.998620986938477
aF-9.000378608703613
aF4.210035800933838
aF4.21244478225708
aF4.200543403625488
aF4.201800346374512
aF-9.00894546508789
aF-8.997879028320312
aF4.203124523162842
aF4.205521583557129
aF4.19644832611084
aF4.2005462646484375
aF-8.994050979614258
aF-8.98792552947998
aF4.196286678314209
aF4.194036483764648
aF4.19926118850708
aF4.1949143409729
aF4.197109222412109
aF-8.996061325073242
aF-8.990921020507812
aF4.19249963760376
aF4.195919990539551
aF4.199251651763916
aF4.193953514099121
aF4.199947834014893
aF-8.96912670135498
aF-8.963018417358398
aF4.190463542938232
aF4.191987037658691
aF4.1953125
aF4.193803310394287
aF4.185538291931152
aF-8.966070175170898
aF-8.971813201904297
aF4.1800007820129395
aF4.186241149902344
aF4.19240140914917
aF4.185189723968506
aF4.182614803314209
aF-8.954938888549805
aF-8.94883918762207
aF4.186473369598389
aF4.184202194213867
aF4.183722019195557
aF4.1774444580078125
aF4.176758766174316
aF-8.94742202758789
aF-8.941328048706055
aF4.173418998718262
aF4.173967361450195
aF4.178213596343994
aF4.175726413726807
aF4.176939964294434
aF-8.95947265625
aF-8.963247299194336
aF4.172562599182129
aF4.175004005432129
aF4.171664714813232
aF4.172017574310303
aF4.177029609680176
aF-8.946609497070312
aF-8.940515518188477
aF4.171609878540039
aF4.1740498542785645
aF4.173554420471191
aF4.174859046936035
aF4.165609359741211
aF-8.9269380569458
aF-8.921845436096191
aF4.162683963775635
aF4.161323547363281
aF4.161757946014404
aF4.156398773193359
aF4.158535957336426
aF-8.928031921386719
aF-8.923925399780273
aF4.156600475311279
aF4.161859035491943
aF4.165139675140381
aF4.16263484954834
aF4.15907621383667
aF-8.923142433166504
aF-8.917064666748047
aF4.160890102386475
aF4.162368297576904
aF4.154273986816406
aF4.158400535583496
aF4.154836177825928
aF-8.924696922302246
aF-8.924540519714355
aF4.157397270202637
aF4.157924652099609
aF4.158356666564941
aF4.151098251342773
aF4.157031536102295
aF-8.899906158447266
aF-8.893843650817871
aF4.153619766235352
aF4.141845703125
aF4.146046161651611
aF4.152059555053711
aF-8.892589569091797
aF-8.907249450683594
aF4.139286994934082
aF4.142629146575928
aF4.143989562988281
aF4.148102760314941
aF4.1521315574646
aF-8.890068054199219
aF-8.896834373474121
aF4.1441121101379395
aF4.148499011993408
aF4.13956356048584
aF4.144708633422852
aF4.144082069396973
aF-8.893157005310059
aF-8.888086318969727
aF-8.882843971252441
aF4.133964538574219
aF4.140136241912842
aF4.1396026611328125
aF4.138970851898193
aF-8.863852500915527
aF-8.873574256896973
aF-8.875232696533203
aF4.139725208282471
aF4.127135276794434
aF4.125741958618164
aF4.130867958068848
aF4.132123947143555
aF-8.866522789001465
aF-8.87131404876709
aF-8.872968673706055
aF4.136810302734375
aF4.131764888763428
aF4.131326198577881
aF4.127008438110352
aF4.121634483337402
aF-8.85513687133789
aF-8.862882614135742
aF-8.866507530212402
aF4.130470275878906
aF4.126361846923828
aF4.127804756164551
aF4.125375747680664
aF4.122842311859131
aF-8.863234519958496
aF-8.848344802856445
aF-8.860822677612305
aF4.125916957855225
aF4.126514434814453
aF4.1251301765441895
aF4.117978096008301
aF4.119221210479736
aF-8.850247383117676
aF-8.859945297241211
aF4.124039649963379
aF4.108644962310791
aF4.113836288452148
aF4.111397743225098
aF4.11358118057251
aF-8.851359367370605
aF-8.845331192016602
aF-8.83913516998291
aF4.1053924560546875
aF4.110668659210205
aF4.114922046661377
aF4.10966157913208
aF4.110900402069092
aF-8.8344087600708
aF-8.83329963684082
aF-8.83888053894043
aF4.108170032501221
aF4.111571788787842
aF4.102654457092285
aF4.105864524841309
aF4.1061577796936035
aF-8.832531929016113
aF-8.833382606506348
aF-8.8320951461792
aF4.107802867889404
aF4.103693008422852
aF4.1088786125183105
aF4.107391357421875
aF4.1001434326171875
aF-8.8239164352417
aF-8.81888484954834
aF-8.819557189941406
aF4.1015167236328125
aF4.099288463592529
aF4.10071325302124
aF4.101105690002441
aF4.1032867431640625
aF-8.815906524658203
aF-8.816753387451172
aF-8.814488410949707
aF4.107124328613281
aF4.106784343719482
aF4.096962928771973
aF4.102992534637451
aF4.0948262214660645
aF-8.814045906066895
aF-8.812934875488281
aF-8.8106689453125
aF4.096954345703125
aF4.100348949432373
aF4.105532169342041
aF4.093730449676514
aF4.097786903381348
aF-8.793364524841309
aF-8.798123359680176
aF-8.794888496398926
aF4.097464561462402
aF4.091508865356445
aF4.097616672515869
aF4.098956108093262
aF4.093626499176025
aF-8.803800582885742
aF-8.798779487609863
aF4.097482681274414
aF4.095282077789307
aF4.0957841873168945
aF4.0886969566345215
aF4.086184978485107
aF-8.787700653076172
aF-8.781716346740723
aF-8.778485298156738
aF4.087577819824219
aF4.0863037109375
aF4.087732791900635
aF4.088133811950684
aF4.08469295501709
aF-8.779680252075195
aF-8.775647163391113
aF-8.77436351776123
aF4.0796709060668945
aF4.083052635192871
aF4.083548069000244
aF4.0811448097229
aF4.080511569976807
aF-8.782099723815918
aF-8.776118278503418
aF4.079061508178711
aF4.082444190979004
aF4.081078052520752
aF4.08708381652832
aF4.075240612030029
aF-8.780485153198242
aF-8.774504661560059
aF4.077111721038818
aF4.0777082443237305
aF4.072625160217285
aF4.069295406341553
aF4.066795349121094
aF-8.762187004089355
aF-8.755249977111816
aF4.074524402618408
aF4.068624019622803
aF4.067259311676025
aF4.066725730895996
aF4.066096782684326
aF-8.756181716918945
aF-8.760873794555664
aF4.069478511810303
aF4.0700764656066895
aF4.0696516036987305
aF4.071919918060303
aF4.067580699920654
aF-8.748685836791992
aF-8.74272632598877
aF4.075406074523926
aF4.07406759262085
aF4.073558330535889
aF4.074814319610596
aF4.07411527633667
aF-8.745644569396973
aF-8.7396879196167
aF4.058818340301514
aF4.060343265533447
aF4.0580735206604
aF4.054775714874268
aF4.053229808807373
aF-8.732171058654785
aF-8.726223945617676
aF4.0522141456604
aF4.054565906524658
aF4.054052352905273
aF4.05158805847168
aF-8.731861114501953
aF-8.719171524047852
aF4.052207946777344
aF4.050870418548584
aF4.0531325340271
aF4.049750804901123
aF-8.73763370513916
aF-8.731682777404785
aF4.045480728149414
aF4.0478315353393555
aF4.052865028381348
aF4.053194522857666
aF4.053431510925293
aF-8.722309112548828
aF4.04131555557251
aF4.045510292053223
aF4.035813808441162
aF4.040745258331299
aF4.044674873352051
aF-8.714757919311523
aF-8.711694717407227
aF4.041068077087402
aF4.042510509490967
aF4.041103839874268
aF4.038678169250488
aF4.029696464538574
aF-8.69205093383789
aF-8.698559761047363
aF4.0317864418029785
aF4.032305717468262
aF4.026305675506592
aF4.03122615814209
aF4.036988258361816
aF-8.698638916015625
aF-8.706077575683594
aF4.032847881317139
aF4.032462120056152
aF4.035645961761475
aF4.040581703186035
aF4.02797269821167
aF4.02254056930542
aF4.025809288024902
aF4.030819416046143
aF4.025684356689453
aF4.029604911804199
aF4.02666711807251
aF4.023566722869873
aF4.026750564575195
aF4.015228748321533
aF4.020052909851074
aF4.013084888458252
aF4.017256736755371
aF4.017703533172607
aF4.019882678985596
aF4.025628089904785
aF4.01736307144165
aF4.022452354431152
aF4.011090278625488
aF4.015086650848389
aF4.018089294433594
aF-8.654181480407715
aF-8.671130180358887
aF-8.665224075317383
aF4.012056350708008
aF4.011709690093994
aF4.011268138885498
aF4.017086029052734
aF4.005554676055908
aF-8.656396865844727
aF-8.66199016571045
aF-8.667403221130371
aF4.010593414306641
aF4.012965679168701
aF4.008914470672607
aF4.012010097503662
aF4.003220081329346
aF-8.653095245361328
aF-8.652078628540039
aF-8.650890350341797
aF4.003853797912598
aF4.007124423980713
aF4.012118339538574
aF3.999842882156372
aF4.003747463226318
aF-8.650552749633789
aF-8.646709442138672
aF-8.645515441894531
aF4.002878665924072
aF4.003451824188232
aF4.003932476043701
aF4.005224227905273
aF4.0019049644470215
aF-8.627039909362793
aF-8.626947402954102
aF-8.622007369995117
aF4.000820159912109
aF3.996828079223633
aF3.995429754257202
aF3.9957356452941895
aF3.9977548122406006
aF-8.62904167175293
aF-8.623332023620605
aF-8.615591049194336
aF3.985947847366333
aF3.9855401515960693
aF3.985935688018799
aF3.990734100341797
aF3.994553804397583
aF-8.621139526367188
aF-8.625692367553711
aF-8.61329460144043
aF3.987321376800537
aF3.9860315322875977
aF3.9909167289733887
aF3.9858529567718506
aF3.9833788871765137
aF-8.605446815490723
aF-8.602544784545898
aF-8.604124069213867
aF3.9890379905700684
aF3.9904448986053467
aF3.9837164878845215
aF3.9804577827453613
aF3.9788906574249268
aF-8.605758666992188
aF-8.600065231323242
aF3.983473539352417
aF3.9768855571746826
aF3.973747968673706
aF3.974076509475708
aF3.9725279808044434
aF-8.593948364257812
aF-8.603983879089355
aF3.979896306991577
aF3.976879835128784
aF3.9790940284729004
aF3.971433162689209
aF3.9770257472991943
aF-8.58465576171875
aF-8.581744194030762
aF3.971316337585449
aF3.9762752056121826
aF3.971402645111084
aF3.9726388454437256
aF3.9755656719207764
aF-8.592794418334961
aF-8.601845741271973
aF3.9675252437591553
aF3.9733638763427734
aF3.9791269302368164
aF3.9688611030578613
aF3.972674608230591
aF-8.573503494262695
aF-8.568748474121094
aF3.9613327980041504
aF3.9653167724609375
aF3.9639294147491455
aF3.962446928024292
aF-8.572443962097168
aF-8.56585693359375
aF3.961552143096924
aF3.9672977924346924
aF3.9632863998413086
aF3.967986583709717
aF3.9628994464874268
aF-8.56435775756836
aF-8.55869197845459
aF3.951420783996582
aF3.9510130882263184
aF3.9540250301361084
aF3.9587135314941406
aF3.95980167388916
aF-8.559925079345703
aF-8.556992530822754
aF3.9475045204162598
aF3.9532299041748047
aF3.9527480602264404
aF3.953050136566162
aF3.946234941482544
aF-8.546553611755371
aF-8.548318862915039
aF-8.545380592346191
aF3.9452900886535645
aF3.943176031112671
aF3.948812246322632
aF3.9421491622924805
aF3.9467432498931885
aF-8.537915229797363
aF-8.53333568572998
aF-8.536723136901855
aF3.937285900115967
aF3.9395244121551514
aF3.9399402141571045
aF3.937654972076416
aF3.937887668609619
aF-8.532966613769531
aF-8.541011810302734
aF-8.538063049316406
aF3.942211627960205
aF3.9366743564605713
aF3.9379658699035645
aF3.9374337196350098
aF3.9402875900268555
aF-8.538613319396973
aF-8.533129692077637
aF-8.527483940124512
aF3.9345192909240723
aF3.935044765472412
aF3.938075065612793
aF3.9427545070648193
aF3.9360835552215576
a.(lp0
F4.551036834716797
aF4.550928115844727
aF4.546754360198975
aF-4.373664379119873
aF-4.375208854675293
aF-4.3720316886901855
aF4.551649570465088
aF4.552901744842529
aF4.5540571212768555
aF-4.425714492797852
aF-4.427956581115723
aF-4.429443836212158
aF-4.423504829406738
aF4.561647415161133
aF4.56023645401001
aF4.557394027709961
aF4.55847692489624
aF-4.488882064819336
aF-4.47031831741333
aF-4.474421501159668
aF4.572995662689209
aF4.577625751495361
aF4.575371742248535
aF-4.600462436676025
aF-4.600704193115234
aF-4.602889537811279
aF4.576090335845947
aF4.575984001159668
aF4.5716962814331055
aF-4.65641975402832
aF-4.659329414367676
aF-4.657367706298828
aF4.584258079528809
aF4.582796096801758
aF4.581242561340332
aF4.581649303436279
aF-4.715124130249023
aF-4.718079566955566
aF-4.714760780334473
aF4.593531608581543
aF4.589318752288818
aF4.5891547203063965
aF4.587517738342285
aF-4.777665615081787
aF-4.778598785400391
aF-4.771831035614014
aF4.5948615074157715
aF4.59473180770874
aF4.593115329742432
aF-4.887698650360107
aF-4.885109901428223
aF-4.879622459411621
aF4.593250751495361
aF4.5980353355407715
aF4.5936360359191895
aF-4.946969985961914
aF-4.945804119110107
aF-4.933308124542236
aF4.605711460113525
aF4.6042094230651855
aF4.6054253578186035
aF4.60303258895874
aF-5.025974750518799
aF-5.019799709320068
aF-5.007152080535889
aF4.610568523406982
aF4.611902236938477
aF4.6081953048706055
aF4.60722017288208
aF-5.07460355758667
aF-5.073385715484619
aF-5.069222450256348
aF4.613495826721191
aF4.609081268310547
aF4.613844871520996
aF-5.117478847503662
aF-5.1112213134765625
aF-5.113456726074219
aF4.62856388092041
aF4.624852180480957
aF4.621768951416016
aF-5.1193695068359375
aF-5.123246669769287
aF-5.1205363273620605
aF-5.119158744812012
aF4.628655910491943
aF4.626391410827637
aF4.629802703857422
aF4.6295084953308105
aF-5.121381759643555
aF-5.121635437011719
aF-5.124682903289795
aF4.6255316734313965
aF4.631260871887207
aF4.63325834274292
aF4.631535053253174
aF-5.136009693145752
aF-5.13625431060791
aF-5.132020950317383
aF4.644258499145508
aF4.6470465660095215
aF4.6468048095703125
aF-5.152188777923584
aF-5.1516642570495605
aF-5.149559020996094
aF4.64752721786499
aF4.651078701019287
aF4.6493821144104
aF-5.156064510345459
aF-5.158477783203125
aF-5.156351089477539
aF4.66048002243042
aF4.659626007080078
aF4.66384744644165
aF4.6598429679870605
aF-5.162582874298096
aF-5.167322158813477
aF-5.168246746063232
aF-5.162373065948486
aF4.663368225097656
aF4.659555912017822
aF4.657137393951416
aF4.659073352813721
aF-5.166102409362793
aF-5.165625095367432
aF-5.168025493621826
aF4.666513442993164
aF4.665611267089844
aF4.663114070892334
aF-5.182028770446777
aF-5.1754841804504395
aF-5.177115440368652
aF4.673727512359619
aF4.669068336486816
aF4.671841144561768
aF-5.181431293487549
aF-5.179379940032959
aF-5.181759357452393
aF4.672364234924316
aF4.66846227645874
aF4.669754981994629
aF4.6679301261901855
aF-5.189587593078613
aF-5.1882758140563965
aF-5.190654754638672
aF4.68457555770874
aF4.681425094604492
aF4.678940773010254
aF4.677121639251709
aF-5.228781700134277
aF-5.218316555023193
aF-5.219182968139648
aF4.693496227264404
aF4.694082736968994
aF4.695333957672119
aF-5.365971088409424
aF-5.3677077293396
aF-5.354677677154541
aF4.695313453674316
aF4.692077159881592
aF4.694894313812256
aF-5.440333366394043
aF-5.436702251434326
aF-5.432178020477295
aF4.693089962005615
aF4.690631866455078
aF4.691932201385498
aF4.690821170806885
aF-5.499216079711914
aF-5.503377914428711
aF-5.500439643859863
aF4.695716381072998
aF4.701780319213867
aF4.697678089141846
aF4.698893070220947
aF-5.566593647003174
aF-5.569921970367432
aF-5.562211036682129
aF4.699978828430176
aF4.703006744384766
aF4.702029228210449
aF4.701733112335205
aF-5.744130611419678
aF-5.732527732849121
aF-5.732606887817383
aF4.7094340324401855
aF4.707684516906738
aF4.70583963394165
aF-5.79248046875
aF-5.788751125335693
aF-5.784106254577637
aF4.716239929199219
aF4.711349010467529
aF4.711087703704834
aF4.707583427429199
aF-5.801799297332764
aF-5.8028059005737305
aF-5.796537399291992
aF4.718032360076904
aF4.71314001083374
aF4.716057300567627
aF4.722024917602539
aF-5.812397003173828
aF-5.805410861968994
aF-5.807084083557129
aF4.729011058807373
aF4.728092670440674
aF4.725483417510986
aF4.721983432769775
aF-5.8234992027282715
aF-5.817358493804932
aF-5.8167195320129395
aF4.730308532714844
aF4.7294020652771
aF4.729994773864746
aF4.7256975173950195
aF-5.829141139984131
aF-5.8261942863464355
aF-5.826351642608643
aF4.733826637268066
aF4.7329301834106445
aF4.733537197113037
aF4.73084020614624
aF-5.82729959487915
aF-5.831608295440674
aF-5.834994316101074
aF4.724263668060303
aF4.72891902923584
aF4.733463764190674
aF-5.824459552764893
aF-5.827138900756836
aF-5.832140922546387
aF4.738588809967041
aF4.7416815757751465
aF4.742238521575928
aF4.74350118637085
aF-5.8427815437316895
aF-5.845458507537842
aF-5.845563888549805
aF4.744096755981445
aF4.745584011077881
aF4.746967315673828
aF4.741757869720459
aF-5.846032619476318
aF-5.844601154327393
aF-5.844690322875977
aF4.749899387359619
aF4.748144626617432
aF4.7462921142578125
aF4.748416423797607
aF-5.857358932495117
aF-5.851086616516113
aF-5.854576110839844
aF-5.8596014976501465
aF4.754088401794434
aF4.750701904296875
aF4.757044792175293
aF4.751824378967285
aF-5.864668846130371
aF-5.8649749755859375
aF-5.869297981262207
aF-5.864398002624512
aF4.751358509063721
aF4.749535083770752
aF4.755842208862305
aF4.755457878112793
aF-5.864537715911865
aF-5.866476535797119
aF-5.8649678230285645
aF4.7638654708862305
aF4.763693809509277
aF4.761768817901611
aF4.758096218109131
aF-5.878409385681152
aF-5.871166706085205
aF-5.875486850738525
aF4.771033763885498
aF4.769213676452637
aF4.7664666175842285
aF4.766107559204102
aF-5.884021759033203
aF-5.885953426361084
aF-5.881056785583496
aF4.777681350708008
aF4.775033950805664
aF4.772290229797363
aF4.773605823516846
aF-5.8940110206604
aF-5.898462772369385
aF-5.888485908508301
aF4.773787975311279
aF4.781223773956299
aF4.782677173614502
aF4.779841899871826
aF-5.9030890464782715
aF-5.902462005615234
aF-5.903408050537109
aF4.785179615020752
aF4.785914897918701
aF4.789067268371582
aF4.787912368774414
aF-5.912054061889648
aF-5.907293319702148
aF-5.910898685455322
aF-5.9101362228393555
aF4.788326740264893
aF4.786443710327148
aF4.787830829620361
aF4.789111137390137
aF-5.921972274780273
aF-5.917189598083496
aF-5.9131293296813965
aF-5.911497116088867
aF4.787672519683838
aF4.78833532333374
aF4.788049697875977
aF4.785974502563477
aF-5.919993877410889
aF-5.9228668212890625
aF-5.917931079864502
aF4.798275470733643
aF4.797261714935303
aF4.796147346496582
aF4.794083595275879
aF-5.9313740730285645
aF-5.927369594573975
aF-5.930973052978516
aF4.801718711853027
aF4.802417755126953
aF4.7979021072387695
aF4.8018012046813965
aF-5.927445888519287
aF-5.93202543258667
aF-5.932179927825928
aF4.802393436431885
aF4.801398277282715
aF4.800302028656006
aF4.80081033706665
aF-5.937893867492676
aF-5.939889430999756
aF-5.9383087158203125
aF4.807034969329834
aF4.806906700134277
aF4.8023905754089355
aF4.803772449493408
aF-5.9418535232543945
aF-5.939509868621826
aF-5.940507411956787
aF4.821193218231201
aF4.8193535804748535
aF4.814828872680664
aF4.809349536895752
aF4.811517715454102
aF-5.948573112487793
aF-5.953162670135498
aF-5.9462971687316895
aF4.822021961212158
aF4.822681427001953
aF4.818056583404541
aF4.817648887634277
aF-5.954731464385986
aF-5.955950736999512
aF-5.959670066833496
aF-5.950153350830078
aF4.823015213012695
aF4.817624568939209
aF4.8233962059021
aF4.820403099060059
aF4.418964862823486
aF-5.961531639099121
aF-5.96274471282959
aF-5.95945405960083
aF-5.959543228149414
aF4.82829475402832
aF4.825504779815674
aF4.8243536949157715
aF4.821366310119629
aF4.519398212432861
aF4.324984073638916
aF4.319442272186279
aF-5.961068630218506
aF-5.964903831481934
aF-5.969500541687012
aF-5.959908485412598
aF4.832639217376709
aF4.827238082885742
aF4.824362754821777
aF4.829230785369873
aF4.4880194664001465
aF4.389665603637695
aF4.339961528778076
aF4.330940246582031
aF4.328757286071777
aF-5.970984935760498
aF-5.9765849113464355
aF-5.969706058502197
aF4.820835590362549
aF4.816323757171631
aF4.820467948913574
aF4.814884185791016
aF4.799606800079346
aF4.648239612579346
aF4.4875569343566895
aF4.403711795806885
aF4.3356146812438965
aF4.33005952835083
aF4.327887058258057
aF-5.9827189445495605
aF-5.976823806762695
aF-5.975223064422607
aF4.606515407562256
aF4.548562049865723
aF4.457422256469727
aF4.431026935577393
aF4.3941330909729
aF4.342425346374512
aF4.3368611335754395
aF4.340771675109863
aF-5.981595039367676
aF-5.986317157745361
aF-5.99092435836792
aF4.34785270690918
aF4.345864295959473
aF4.340295791625977
aF4.333773612976074
aF-5.986177444458008
aF-5.9873433113098145
aF-5.992839336395264
aF4.339405059814453
aF4.341827392578125
aF4.336264133453369
aF4.332367897033691
aF4.322269439697266
aF-5.995955944061279
aF-5.998898983001709
aF-5.993674278259277
aF4.338972568511963
aF4.33701753616333
aF4.334094047546387
aF4.32932710647583
aF4.330604076385498
aF-5.997103214263916
aF-6.002727508544922
aF-5.994794845581055
aF4.33859920501709
aF4.340179920196533
aF4.340779781341553
aF4.336007118225098
aF4.331149101257324
aF-6.005588531494141
aF-6.008526802062988
aF-6.001460552215576
aF4.344840049743652
aF4.342895030975342
aF4.340857982635498
aF4.336087226867676
aF4.340907096862793
aF-6.009446144104004
aF-6.012505531311035
aF-6.0091471672058105
aF-6.010160446166992
aF4.346989631652832
aF4.345850467681885
aF4.34107780456543
aF4.335335731506348
aF-6.030320167541504
aF-6.022548198699951
aF-6.020963668823242
aF-6.015631675720215
aF4.3479838371276855
aF4.344189167022705
aF4.344743728637695
aF4.339882850646973
aF-6.022658348083496
aF-6.0257110595703125
aF-6.025924205780029
aF-6.022384166717529
aF4.348357200622559
aF4.345457553863525
aF4.347805500030518
aF4.349160671234131
aF-6.032557487487793
aF-6.038335800170898
aF-6.035821914672852
aF4.351258277893066
aF4.355498790740967
aF4.353392601013184
aF4.34585428237915
aF-6.042202472686768
aF-6.036166191101074
aF-6.036365509033203
aF-6.0409955978393555
aF4.356586456298828
aF4.353693008422852
aF4.35160493850708
aF4.349423885345459
aF4.343580722808838
aF-6.050041675567627
aF-6.043048858642578
aF-6.047801494598389
aF4.356382846832275
aF4.357085704803467
aF4.353206157684326
aF4.347447395324707
aF4.346972465515137
aF-6.05825138092041
aF-6.0439229011535645
aF-6.04592752456665
aF4.356675148010254
aF4.355592250823975
aF4.353516101837158
aF4.348655700683594
aF4.343709468841553
aF-6.057781219482422
aF-6.053493976593018
aF-6.054581165313721
aF4.367051601409912
aF4.362358093261719
aF4.359378814697266
aF4.354511737823486
aF4.350457191467285
aF-6.055593013763428
aF-6.059555530548096
aF-6.061560153961182
aF4.38651704788208
aF4.387228965759277
aF4.387840747833252
aF4.385645866394043
aF4.382456302642822
aF-6.06341028213501
aF-6.065529823303223
aF-6.069372653961182
aF4.389891147613525
aF4.41417121887207
aF-6.077113628387451
aF-6.058920383453369
aF-6.064602851867676
aF4.395161151885986
aF4.421311378479004
aF-6.070026874542236
aF-6.074915409088135
aF-6.074128150939941
aF4.408961296081543
aF4.553424835205078
aF-6.07319974899292
aF-6.076234817504883
aF-6.0772929191589355
aF4.628285884857178
aF4.779956340789795
aF-6.08591365814209
aF-6.088146686553955
aF-6.081882476806641
aF-6.0866546630859375
aF4.730780601501465
aF4.780264377593994
aF4.848806381225586
aF-6.090754985809326
aF-6.090190887451172
aF-6.094160079956055
aF-6.092410087585449
aF4.836695671081543
aF4.830994606018066
aF4.895172119140625
aF-6.088733673095703
aF-6.094687461853027
aF-6.10052490234375
aF-6.083817481994629
aF4.912777423858643
aF4.909860610961914
aF4.915156364440918
aF4.911107063293457
aF4.920780658721924
aF-6.108925819396973
aF-6.097142696380615
aF-6.102046489715576
aF-6.106832981109619
aF4.800970554351807
aF4.813731670379639
aF4.9280805587768555
aF-6.113022327423096
aF-6.11524772644043
aF-6.109837532043457
aF-6.112748146057129
aF4.71457052230835
aF-6.117817401885986
aF-6.116284370422363
aF-6.110859394073486
aF-6.112825393676758
aF4.657880783081055
aF-6.122880458831787
aF-6.122280120849609
aF-6.1168413162231445
aF4.6497955322265625
aF-6.134899616241455
aF-6.124875068664551
aF-6.126023769378662
aF4.680531978607178
aF-6.126716613769531
aF-6.130817413330078
aF-6.136690139770508
aF4.711489677429199
aF-6.1342854499816895
aF-6.13744592666626
aF-6.129123210906982
aF4.756263256072998
aF-6.13895320892334
aF-6.140219688415527
aF-6.137568950653076
aF4.796616077423096
aF-6.13527250289917
aF-6.140323162078857
aF-6.142406940460205
aF4.858077049255371
aF-6.15723180770874
aF-6.148987293243408
aF-6.147262096405029
aF4.875844955444336
aF-6.157863616943359
aF-6.1610283851623535
aF-6.146912574768066
aF-6.156671524047852
aF-6.156970977783203
aF-6.159050464630127
aF4.922904968261719
aF-6.160923004150391
aF-6.164083003997803
aF-6.162342548370361
aF4.960104942321777
aF-6.168910503387451
aF-6.174942493438721
aF-6.165531158447266
aF4.962613105773926
aF-6.174814701080322
aF-6.18085241317749
aF-6.172386169433594
aF4.969151020050049
aF-6.184428691864014
aF-6.190475940704346
aF-6.1743268966674805
aF4.984474182128906
aF-6.185005187988281
aF-6.1910529136657715
aF-6.189294338226318
aF4.9912567138671875
aF-6.196950912475586
aF-6.189542293548584
aF-6.190655708312988
aF4.981522560119629
aF-6.199438095092773
aF-6.199724197387695
aF-6.196025371551514
aF4.984050273895264
aF-6.197991847991943
aF-6.2011613845825195
aF-6.1993865966796875
aF4.994800567626953
aF-6.200413703918457
aF-6.205511569976807
aF-6.209525108337402
aF4.823455810546875
aF5.000410556793213
aF-6.219609260559082
aF-6.204439163208008
aF-6.210381984710693
aF4.85447883605957
aF5.00293493270874
aF5.003393173217773
aF-6.2113800048828125
aF-6.216486930847168
aF-6.221473217010498
aF4.888248920440674
aF4.996716022491455
aF5.007662773132324
aF-6.2241950035095215
aF-6.2186737060546875
aF-6.224629878997803
aF5.0185441970825195
aF5.021968364715576
aF5.009068012237549
aF-6.222320079803467
aF-6.226594924926758
aF-6.230746746063232
aF-6.22121000289917
aF4.931744575500488
aF4.978294372558594
aF5.012210369110107
aF-6.234278678894043
aF-6.23455810546875
aF-6.240530014038086
aF4.9947333335876465
aF-6.236332416534424
aF-6.2377095222473145
aF-6.239928245544434
aF-6.242020130157471
aF4.9878106117248535
aF-6.242195129394531
aF-6.244415760040283
aF-6.247480869293213
aF4.996804237365723
aF-6.247238636016846
aF-6.243632793426514
aF-6.248640060424805
aF4.659116744995117
aF4.6636528968811035
aF4.659488677978516
aF4.662851333618164
aF-6.261559963226318
aF-6.25892972946167
aF-6.258110523223877
aF4.550088882446289
aF4.546072959899902
aF4.54958963394165
aF4.56060791015625
aF4.57244348526001
aF-6.266257286071777
aF-6.266546726226807
aF-6.260862827301025
aF4.533714771270752
aF4.530578136444092
aF4.534964561462402
aF4.532580852508545
aF-6.264099597930908
aF-6.268278121948242
aF-6.269410610198975
aF4.53459358215332
aF4.533364295959473
aF4.535846710205078
aF4.530609130859375
aF-6.276361465454102
aF-6.277629852294922
aF-6.2651238441467285
aF4.516541481018066
aF4.52202033996582
aF4.5207109451293945
aF4.514542579650879
aF4.508288860321045
aF-6.277555465698242
aF-6.281745433807373
aF-6.271181583404541
aF4.515380382537842
aF4.517045497894287
aF4.51288366317749
aF4.51148796081543
aF4.509992599487305
aF-6.286744117736816
aF-6.290942192077637
aF-6.27940559387207
aF4.509914398193359
aF4.505858421325684
aF4.504573822021484
aF4.5079522132873535
aF4.505512237548828
aF-6.2972211837768555
aF-6.27802848815918
aF-6.283065319061279
aF4.502630710601807
aF4.500496864318848
aF4.498266696929932
aF4.499751091003418
aF4.497323513031006
aF-6.29127836227417
aF-6.296453952789307
aF-6.288817882537842
aF4.494468688964844
aF4.491390228271484
aF4.4910807609558105
aF4.494481563568115
aF4.498722076416016
aF-6.296775817871094
aF-6.285376071929932
aF-6.285538196563721
aF4.501032829284668
aF4.495079517364502
aF4.492856979370117
aF4.494349479675293
aF4.493832588195801
aF-6.285872459411621
aF-6.289092063903809
aF-6.295115947723389
aF4.504758834838867
aF4.504532337188721
aF4.5022969245910645
aF4.497107028961182
aF4.503245830535889
aF-6.2925519943237305
aF-6.284074783325195
aF-6.290093898773193
aF4.5012288093566895
aF4.501961708068848
aF4.498775482177734
aF4.499305725097656
aF4.5025858879089355
aF-6.291629791259766
aF-6.276327610015869
aF-6.279410362243652
aF4.515509605407715
aF4.5124006271362305
aF4.510151386260986
aF4.510662078857422
aF4.518673896789551
aF-6.268068790435791
aF-6.269324779510498
aF-6.274353981018066
aF4.535954475402832
aF4.532817363739014
aF4.530539512634277
aF4.532923221588135
aF-6.260667324066162
aF-6.265941619873047
aF-6.272068500518799
aF-6.260522842407227
aF4.534296989440918
aF4.534022331237793
aF4.535552501678467
aF4.538877487182617
aF-6.260732650756836
aF-6.260037422180176
aF-6.26310920715332
aF4.543967247009277
aF4.543678283691406
aF4.538525581359863
aF4.546598434448242
aF-6.2578558921813965
aF-6.264100074768066
aF-6.260490417480469
aF-6.255768299102783
aF4.5739641189575195
aF4.570870876312256
aF4.5867390632629395
aF4.587237358093262
aF-6.246067047119141
aF-6.24452543258667
aF-6.2438225746154785
aF-6.245908260345459
aF4.656275272369385
aF4.672271728515625
aF4.683353900909424
aF4.707634925842285
aF-6.245337009429932
aF-6.24476957321167
aF-6.246013641357422
aF-6.2403178215026855
aF4.693838596343994
aF4.68123197555542
aF4.702909469604492
aF4.696786403656006
aF-6.240672588348389
aF-6.240104675292969
aF-6.236489295959473
aF-6.2375993728637695
aF5.036538600921631
aF-6.235744476318359
aF-6.232264995574951
aF-6.2373881340026855
aF-6.238502025604248
aF5.005921840667725
aF5.030414581298828
aF-6.227194309234619
aF-6.233407974243164
aF-6.225924015045166
aF-6.219265937805176
aF5.022235870361328
aF5.0247111320495605
aF-6.228520393371582
aF-6.212461471557617
aF-6.218536376953125
aF-6.224492073059082
aF5.01727294921875
aF5.022730350494385
aF5.022335052490234
aF-6.217623233795166
aF-6.2218918800354
aF-6.211507320404053
aF-6.215517044067383
aF5.016435146331787
aF5.021883487701416
aF5.017666816711426
aF-6.2147417068481445
aF-6.217075347900391
aF-6.210572719573975
aF-6.2136149406433105
aF5.013473987579346
aF5.014139175415039
aF5.013740062713623
aF-6.202264785766602
aF-6.205557346343994
aF-6.206793785095215
aF-6.197262763977051
aF5.0139851570129395
aF5.010831356048584
aF5.010431289672852
aF-6.195067882537842
aF-6.199320316314697
aF-6.1928300857543945
aF-6.195862293243408
aF5.00800895690918
aF5.008669853210449
aF5.010169506072998
aF-6.196780204772949
aF-6.185615062713623
aF-6.1916632652282715
aF-6.197593688964844
aF5.003259181976318
aF5.0048723220825195
aF5.002569198608398
aF-6.190157413482666
aF-6.192481994628906
aF-6.186004638671875
aF-6.190000057220459
aF4.997253894805908
aF5.0036115646362305
aF4.999406814575195
aF-6.184216022491455
aF-6.180771350860596
aF-6.18296480178833
aF-6.180216312408447
aF5.001716136932373
aF4.999515533447266
aF5.000054836273193
aF-6.1791534423828125
aF-6.1843581199646
aF-6.177903175354004
aF-6.180932521820068
aF4.9836626052856445
aF4.998545169830322
aF4.997183799743652
aF-6.171136379241943
aF-6.176334857940674
aF-6.167964935302734
aF-6.171949863433838
aF4.992069244384766
aF4.987030029296875
aF4.993244171142578
aF-6.1658501625061035
aF-6.170085906982422
aF-6.165565013885498
aF-6.1714701652526855
aF4.981734752655029
aF4.983321666717529
aF4.985739707946777
aF-6.159225940704346
aF-6.159503936767578
aF-6.165403366088867
aF4.975063800811768
aF4.990809440612793
aF4.988494396209717
aF-6.155012607574463
aF-6.153379917144775
aF-6.158316612243652
aF4.975619792938232
aF4.984738826751709
aF4.98054313659668
aF-6.155160427093506
aF-6.146850109100342
aF-6.149869441986084
aF4.967933177947998
aF4.976101398468018
aF4.983201026916504
aF-6.147030353546143
aF-6.1473164558410645
aF-6.141744613647461
aF4.974203586578369
aF4.969178676605225
aF4.968747138977051
aF-6.135318756103516
aF-6.137510776519775
aF-6.1319580078125
aF4.968654632568359
aF4.966449737548828
aF4.965076923370361
aF-6.132063865661621
aF-6.129505157470703
aF-6.124911308288574
aF4.962944984436035
aF4.960740089416504
aF4.964043617248535
aF-6.12533712387085
aF-6.128479957580566
aF-6.123902797698975
aF4.963878631591797
aF4.963540554046631
aF4.960290908813477
aF-6.1214470863342285
aF-6.127432823181152
aF-6.118119716644287
aF4.958838939666748
aF4.955691814422607
aF4.95617151260376
aF-6.1161956787109375
aF-6.120285511016846
aF-6.116684913635254
aF4.949529647827148
aF4.953845500946045
aF4.955249786376953
aF-6.106280326843262
aF-6.110362529754639
aF-6.113379955291748
aF4.951619625091553
aF4.947543621063232
aF4.957312107086182
aF-6.11452579498291
aF-6.115790367126465
aF-6.104659080505371
aF4.951659679412842
aF4.95222806930542
aF4.948044776916504
aF-6.099946022033691
aF-6.104968547821045
aF-6.1098737716674805
aF4.940982818603516
aF4.943394184112549
aF-6.094733715057373
aF-6.0941243171691895
aF-6.08774995803833
aF4.9104743003845215
aF4.941730976104736
aF4.939505100250244
aF-6.089326858520508
aF-6.087783336639404
aF-6.083295822143555
aF4.934595584869385
aF4.931657314300537
aF4.938790321350098
aF4.941180229187012
aF-6.088419437408447
aF-6.082208156585693
aF-6.08522367477417
aF4.934791564941406
aF4.938316822052002
aF4.940803527832031
aF4.940410137176514
aF-6.081912040710449
aF-6.0878586769104
aF-6.078731536865234
aF-6.079753875732422
aF4.916766166687012
aF4.9256792068481445
aF4.921609878540039
aF-6.065072536468506
aF-6.067281723022461
aF-6.067505836486816
aF-6.064807891845703
aF4.800724029541016
aF4.89052677154541
aF4.927751541137695
aF-6.068685531616211
aF-6.065330982208252
aF-6.065561771392822
aF-6.0665974617004395
aF4.745293140411377
aF-6.054868221282959
aF-6.060788154602051
aF-6.050821781158447
aF-6.0564961433410645
aF-6.054389476776123
aF-6.051985263824463
aF-6.044819355010986
aF-6.049561977386475
aF4.61970853805542
aF4.613980293273926
aF4.480334758758545
aF4.4745941162109375
aF-6.045602798461914
aF-6.051514148712158
aF-6.044390678405762
aF-6.046364784240723
aF4.4013471603393555
aF4.392092704772949
aF4.392693519592285
aF4.381473541259766
aF4.380989074707031
aF-6.049684524536133
aF-6.0435028076171875
aF-6.042715549468994
aF4.3712158203125
aF4.371931552886963
aF4.36533784866333
aF4.360463619232178
aF4.357301712036133
aF-6.0338029861450195
aF-6.036823272705078
aF-6.039722919464111
aF4.37019157409668
aF4.360990524291992
aF4.359807968139648
aF4.353143692016602
aF4.354468822479248
aF-6.036446571350098
aF-6.033052444458008
aF-6.032281398773193
aF4.3590168952941895
aF4.356122016906738
aF4.353137969970703
aF4.34916877746582
aF4.349578857421875
aF-6.0327467918396
aF-6.019328594207764
aF-6.024974346160889
aF4.362069129943848
aF4.35737419128418
aF4.35259485244751
aF4.346837520599365
aF4.341888904571533
aF-6.022342205047607
aF-6.018077373504639
aF-6.005462169647217
aF4.359288215637207
aF4.353702545166016
aF4.356062412261963
aF4.352973937988281
aF4.348904609680176
aF-6.008365154266357
aF-5.998643398284912
aF-5.956884384155273
aF4.360019207000732
aF4.354432106018066
aF4.3505425453186035
aF4.3483428955078125
aF-5.915362358093262
aF-5.8647236824035645
aF4.360211372375488
aF4.355602264404297
aF4.350909233093262
aF4.347901821136475
aF4.3430352210998535
aF-5.85185432434082
aF4.356177806854248
aF4.353344440460205
aF4.35307502746582
aF4.342105388641357
aF4.341656684875488
aF-5.924304485321045
aF4.350861072540283
aF4.358633041381836
aF4.353047847747803
aF4.340328216552734
aF4.333706855773926
aF-5.993432998657227
aF4.353523254394531
aF4.34979772567749
aF4.345985412597656
aF4.34032678604126
aF4.3363423347473145
aF-5.975273609161377
aF4.351206302642822
aF4.348352909088135
aF4.344533920288086
aF4.3388776779174805
aF4.334012031555176
aF-5.729195594787598
aF4.348927974700928
aF4.340818881988525
aF4.3378801345825195
aF4.332232475280762
aF-5.741914749145508
aF4.345413684844971
aF4.3451762199401855
aF4.343097686767578
aF4.3391852378845215
aF-5.787603378295898
aF4.351418495178223
aF4.350383281707764
aF4.347512245178223
aF4.3532514572143555
aF4.347583770751953
aF-5.843084812164307
aF4.352179050445557
aF4.349384784698486
aF4.353433609008789
aF4.352181911468506
aF-5.929039001464844
aF4.841442108154297
aF4.348575115203857
aF4.34664249420166
aF4.342890739440918
aF4.3485426902771
aF-5.941049575805664
aF4.8448615074157715
aF4.342680931091309
aF4.351102828979492
aF4.347342014312744
aF4.3434929847717285
aF-5.932358264923096
aF4.837709903717041
aF4.832302570343018
aF4.618072032928467
aF4.351343154907227
aF4.3476691246032715
aF4.355086326599121
aF4.3555169105529785
aF-5.937540531158447
aF-5.724973201751709
aF4.838404655456543
aF4.84259033203125
aF4.838040351867676
aF4.831673622131348
aF4.804570198059082
aF4.49559211730957
aF4.490201473236084
aF4.484725475311279
aF4.465466499328613
aF-5.93392276763916
aF-5.834949493408203
aF4.835981845855713
aF4.834118366241455
aF4.831294536590576
aF4.829232215881348
aF-5.91721248626709
aF-5.879327297210693
aF4.836337089538574
aF4.838753700256348
aF4.835060119628906
aF4.831270694732666
aF-5.920898914337158
aF4.830564975738525
aF4.826974868774414
aF4.8309783935546875
aF4.828042030334473
aF-5.915064811706543
aF-5.826312065124512
aF4.813995838165283
aF4.8163604736328125
aF4.8126749992370605
aF4.813133239746094
aF-5.890603542327881
aF-5.892577171325684
aF-5.897869110107422
aF4.81793737411499
aF4.815191745758057
aF4.813195705413818
aF4.812790870666504
aF-5.870209693908691
aF4.812807083129883
aF4.812697887420654
aF4.810796737670898
aF4.809640407562256
aF4.813405990600586
aF4.810751914978027
aF4.8105292320251465
aF4.810203552246094
aF4.805375576019287
aF4.80774450302124
aF4.802468299865723
aF4.810483932495117
aF4.800703525543213
aF4.805563449859619
aF4.800289630889893
aF4.794924259185791
aF4.794597625732422
aF4.79609489440918
aF4.79665470123291
aF4.794617652893066
aF4.79573917388916
aF4.798877239227295
aF4.797758102416992
aF4.794881820678711
aF4.788435935974121
aF4.785849571228027
aF4.78151798248291
aF4.78367805480957
aF4.784761905670166
aF4.785465717315674
aF4.786888122558594
aF4.786562919616699
aF4.780002593994141
aF4.774949550628662
aF4.780453205108643
aF4.784205913543701
aF4.778316974639893
aF4.774083614349365
aF4.782003879547119
aF4.785727500915527
aF4.762002468109131
aF4.761022567749023
aF4.766420841217041
aF4.763616561889648
aF4.757076263427734
aF4.754469871520996
aF4.7549943923950195
aF4.753435134887695
aF4.751728057861328
aF4.748314380645752
aF4.751237392425537
aF4.754084587097168
aF4.75397253036499
aF4.752957344055176
aF4.750241279602051
aF4.757880210876465
aF4.756136417388916
aF4.754295825958252
aF4.753950119018555
aF4.740997791290283
aF4.754355430603027
aF4.754885673522949
aF4.741580963134766
aF4.743778228759766
aF4.743502140045166
aF4.7386369705200195
aF4.74170446395874
aF4.740726470947266
aF4.7380757331848145
aF4.730443000793457
aF4.733457088470459
aF4.733238220214844
aF4.737603664398193
aF4.727115631103516
aF4.724644184112549
aF4.727522373199463
aF4.726408958435059
aF4.725162982940674
aF4.723457336425781
aF4.720881938934326
aF4.717765808105469
aF4.7206878662109375
aF4.718106746673584
aF4.710138320922852
aF4.705442905426025
aF4.708311080932617
aF4.708780765533447
aF4.70145845413208
aF4.702877044677734
aF4.704192638397217
aF4.707691669464111
aF4.69685697555542
aF4.697490692138672
aF4.701817512512207
aF4.70224666595459
aF-5.181194305419922
aF4.702201843261719
aF4.700540542602539
aF4.698782920837402
aF-5.170300006866455
aF-5.1683149337768555
aF-5.17305850982666
aF-5.173139572143555
aF4.697530746459961
aF4.695194721221924
aF4.691264629364014
aF4.692489147186279
aF-5.165035724639893
aF-5.168269157409668
aF-5.1691389083862305
aF4.692546367645264
aF4.692446708679199
aF4.690755367279053
aF4.685985565185547
aF-5.158624649047852
aF-5.163360118865967
aF-5.158987045288086
aF4.6839165687561035
aF4.688271999359131
aF4.684342384338379
aF4.68774938583374
aF-5.157078266143799
aF-5.161065101623535
aF-5.157474517822266
aF4.6765642166137695
aF4.6742167472839355
aF4.679171562194824
aF-5.149447441101074
aF-5.150459289550781
aF-5.1461591720581055
aF4.665384292602539
aF4.665226459503174
aF4.663505554199219
aF-5.130404949188232
aF-5.131329536437988
aF-5.135836124420166
aF4.663580417633057
aF4.6656880378723145
aF4.66185998916626
aF4.66012716293335
aF-5.128334999084473
aF-5.129276752471924
aF-5.122046947479248
aF4.655994415283203
aF4.661708831787109
aF4.6578803062438965
aF4.660486221313477
aF-5.1198859214782715
aF-5.123754501342773
aF-5.118768215179443
aF4.65554141998291
aF4.655421733856201
aF4.653761863708496
aF-5.115604400634766
aF-5.117298126220703
aF-5.114532947540283
aF4.644439220428467
aF4.645716667175293
aF4.641178131103516
aF-5.103451251983643
aF-5.108035087585449
aF-5.1067728996276855
aF-5.104684829711914
aF4.637907028198242
aF4.634984493255615
aF4.631260395050049
aF4.6288676261901855
aF-5.083777904510498
aF-5.087528228759766
aF-5.076883792877197
aF4.634487628936768
aF4.6315598487854
aF4.629955291748047
aF4.62543249130249
aF-5.027133941650391
aF-5.025264739990234
aF-5.023997783660889
aF4.622998237609863
aF4.620075225830078
aF4.622689723968506
aF-4.956701278686523
aF-4.95267915725708
aF-4.950667858123779
aF4.623648643493652
aF4.622805118560791
aF4.6204729080200195
aF-4.833846569061279
aF-4.838283538818359
aF-4.83213472366333
aF4.60867977142334
aF4.606534957885742
aF4.6140055656433105
aF4.61236047744751
aF-4.775862216949463
aF-4.777467727661133
aF-4.765768051147461
aF4.610803127288818
aF4.608646392822266
aF4.6098480224609375
aF4.614398002624512
aF-4.7184576988220215
aF-4.722097873687744
aF-4.713192462921143
aF4.604167461395264
aF4.603376388549805
aF4.60660457611084
aF-4.662138938903809
aF-4.653472900390625
aF-4.657057285308838
aF-4.6612396240234375
aF4.594048500061035
aF4.595268249511719
aF4.598426818847656
aF-4.549571990966797
aF-4.553159713745117
aF-4.544423580169678
aF4.590080261230469
aF4.596109390258789
aF4.5925703048706055
aF4.588942050933838
aF-4.493480682373047
aF-4.496434211730957
aF-4.488484859466553
aF-4.489899635314941
aF4.5835747718811035
aF4.586856842041016
aF4.589367389678955
aF-4.439230442047119
aF-4.437442779541016
aF-4.432873249053955
aF4.584052562713623
aF4.5812764167785645
aF4.577742576599121
aF-4.379115581512451
aF-4.380641460418701
aF-4.3840813636779785
aF4.562418460845947
aF4.562280178070068
aF4.563364505767822
aF-4.264612674713135
aF-4.264181137084961
aF-4.264317512512207
aF4.554025650024414
aF4.553308010101318
aF4.5577392578125
aF4.556832313537598
aF-4.214827060699463
aF-4.217641353607178
aF-4.207294940948486
aF4.550759792327881
aF4.550027847290039
aF4.55311393737793
aF-4.167537689208984
aF-4.166502952575684
aF-4.1621294021606445
aF-4.163513660430908
aF4.541533470153809
aF4.538844108581543
aF4.540594100952148
aF-4.10938835144043
aF-4.111555576324463
aF-4.1071882247924805
aF4.546039581298828
aF4.546537399291992
aF4.539896488189697
aF-4.022719860076904
aF-4.018529415130615
aF-4.011693477630615
aF-4.015615940093994
aF4.546255588531494
aF4.5481038093566895
aF4.547303199768066
aF-3.968712329864502
aF-3.9727518558502197
aF-3.9767160415649414
aF-3.9697976112365723
aF4.538741588592529
aF4.538655757904053
aF4.540378570556641
aF-3.9226043224334717
aF-3.9202945232391357
aF-3.924206018447876
aF4.534339427947998
aF4.534231185913086
aF4.533400535583496
aF-3.8793742656707764
aF-3.8771474361419678
aF-3.8710784912109375
aF-3.873687982559204
aF4.5261640548706055
aF4.5248613357543945
aF4.5209808349609375
aF-3.7804791927337646
aF-3.7806999683380127
aF-3.78454852104187
aF4.509101867675781
aF4.511497974395752
aF4.514414310455322
aF-3.730752468109131
aF-3.7340128421783447
aF-3.7378134727478027
aF4.502386093139648
aF4.5016770362854
aF4.498428821563721
aF-3.697134494781494
aF-3.6967976093292236
aF-3.6921279430389404
aF4.496211528778076
aF4.500362873077393
aF4.498938083648682
aF-3.062777519226074
aF-3.0565032958984375
aF-3.061492681503296
aF-3.059849262237549
aF4.474938869476318
aF4.477275848388672
aF4.475921630859375
aF-2.9924099445343018
aF-2.9956002235412598
aF-2.9940309524536133
aF-2.9918031692504883
aF4.4700140953063965
aF4.469334602355957
aF4.4703497886657715
aF-2.960002899169922
aF-2.9638006687164307
aF-2.9564709663391113
aF-2.955474615097046
aF-2.956747055053711
aF4.462705612182617
aF4.465556621551514
aF4.465359210968018
aF-2.9244706630706787
aF-2.9195573329925537
aF-2.9186153411865234
aF-2.9222395420074463
aF4.450344085693359
aF4.453742504119873
aF-2.8786604404449463
aF-2.8823537826538086
aF-2.884270191192627
aF-2.883828639984131
aF4.43958854675293
aF4.439511775970459
aF4.442233085632324
aF-2.8125576972961426
aF-2.81284236907959
aF-2.8091137409210205
aF-2.808138608932495
aF4.440500259399414
aF4.441552639007568
aF4.44136381149292
aF-2.777902364730835
aF-2.78096342086792
aF-2.7834091186523438
aF-2.7807416915893555
aF4.441507816314697
aF4.4442458152771
aF-2.7541756629943848
aF-2.749476671218872
aF-2.746932029724121
aF-2.74599289894104
aF-2.745548963546753
aF4.440406799316406
aF4.443196773529053
aF4.441350936889648
aF-2.720945119857788
aF-2.709071636199951
aF-2.7126035690307617
aF-2.715529441833496
aF4.427306652069092
aF4.424417495727539
aF4.432056903839111
aF-2.6466786861419678
aF-2.649695873260498
aF-2.653205394744873
aF-2.6446805000305176
aF-2.645346164703369
aF4.412039279937744
aF4.410264492034912
aF-2.612631320953369
aF-2.610224723815918
aF-2.611525535583496
aF-2.60575532913208
aF4.40742826461792
aF4.409035682678223
aF4.407801628112793
aF-2.5835535526275635
aF-2.576873302459717
aF-2.5792157649993896
aF-2.582578182220459
aF4.400202751159668
aF4.397406578063965
aF4.398885726928711
aF-2.548063039779663
aF-2.5488438606262207
aF-2.5458576679229736
aF-2.5422756671905518
aF4.383179187774658
aF4.3814592361450195
aF-2.480050563812256
aF-2.474081039428711
aF-2.4758479595184326
aF-2.4791271686553955
aF4.367672920227051
aF4.365504741668701
aF4.367499351501465
aF-2.443366527557373
aF-2.443615436553955
aF-2.4412317276000977
aF-2.440335273742676
aF4.357309341430664
aF4.3582940101623535
aF4.359189510345459
aF-2.4092729091644287
aF-2.4070165157318115
aF-2.4062275886535645
aF-2.40895414352417
aF-2.4029459953308105
aF4.350123882293701
aF4.3521246910095215
aF4.350384712219238
aF-2.376450538635254
aF-2.3767168521881104
aF-2.3764238357543945
aF-2.3781018257141113
aF4.325314998626709
aF4.322200298309326
aF4.328719139099121
aF-2.309915542602539
aF-2.310697555541992
aF-2.3099441528320312
aF-2.3116133213043213
aF-2.312242269515991
aF4.317281246185303
aF4.326863765716553
aF4.326707363128662
aF-2.2812366485595703
aF-2.28346848487854
aF-2.285654306411743
aF-2.279928684234619
aF-2.2790579795837402
aF4.318109512329102
aF4.3185248374938965
aF-2.254777193069458
aF-2.2521166801452637
aF-2.2552406787872314
aF-2.2514946460723877
aF4.313246726989746
aF4.318628787994385
aF-2.224655866622925
aF-2.2278356552124023
aF-2.2271153926849365
aF-2.2210309505462646
aF-2.2235820293426514
aF4.29058313369751
aF4.299843788146973
aF4.298218727111816
aF-2.167592763900757
aF-2.1697452068328857
aF-2.1614370346069336
aF-2.161590576171875
aF-2.1616950035095215
aF4.2947235107421875
aF4.294632434844971
aF-2.135145425796509
aF-2.1377744674682617
aF-2.1403613090515137
aF-2.1391515731811523
aF-2.1374192237854004
aF4.275603294372559
aF4.282798767089844
aF4.283165454864502
aF-2.109199047088623
aF-2.104853391647339
aF-2.107398271560669
aF-2.1015474796295166
aF-2.1035335063934326
aF4.274796485900879
aF4.279040813446045
aF4.280810832977295
aF-2.079214334487915
aF-2.077183961868286
aF-2.0741806030273438
aF-2.075721263885498
aF-2.0786006450653076
aF4.244150638580322
aF4.2445220947265625
aF-2.0307414531707764
aF-2.0274128913879395
aF-2.0289642810821533
aF-2.0286755561828613
aF-2.0310394763946533
aF4.228041648864746
aF4.227551460266113
aF4.231588363647461
aF-2.0211148262023926
aF-2.022671699523926
aF-2.0255203247070312
aF-2.0229873657226562
aF4.210435390472412
aF4.209927082061768
aF4.209334850311279
aF-2.0145273208618164
aF-2.0152156352996826
aF-2.014543056488037
aF-2.0142617225646973
aF-2.016573667526245
aF4.206908702850342
aF4.205929756164551
aF-2.0127384662628174
aF-2.0147037506103516
aF-2.014451265335083
aF-2.015024185180664
aF4.18350076675415
aF4.18389892578125
aF4.181571006774902
aF-1.999213695526123
aF-2.0007121562957764
aF-2.000466823577881
aF-1.9984709024429321
aF-2.0002646446228027
aF4.177112102508545
aF4.175301551818848
aF-1.989570140838623
aF-1.9923300743103027
aF-1.9937891960144043
aF-1.9935206174850464
aF-1.9932063817977905
aF4.169369220733643
aF4.180942058563232
aF-1.9908753633499146
aF-1.9935952425003052
aF-1.993772029876709
aF-1.992649793624878
aF-1.9944102764129639
aF4.17103910446167
aF4.171009063720703
aF4.169185638427734
aF-1.9906409978866577
aF-1.9904247522354126
aF-1.9897489547729492
aF-1.991513729095459
aF4.141850471496582
aF4.143448829650879
aF-1.9760805368423462
aF-1.9786977767944336
aF-1.9792535305023193
aF-1.9793611764907837
aF4.1322736740112305
aF4.131350994110107
aF-1.9711533784866333
aF-1.9697718620300293
aF-1.9711406230926514
aF-1.972068428993225
aF-1.9729546308517456
aF4.119408130645752
aF4.12385892868042
aF-1.9664275646209717
aF-1.9670157432556152
aF-1.9687482118606567
aF-1.9664806127548218
aF4.121872425079346
aF4.1246337890625
aF-1.9625999927520752
aF-1.9608584642410278
aF-1.961025595664978
aF-1.9615414142608643
aF-1.9627996683120728
aF4.057651042938232
aF4.057954788208008
aF-1.9106636047363281
aF-1.9082059860229492
aF-1.9076050519943237
aF-1.9081047773361206
aF-1.9043605327606201
aF3.9792442321777344
aF3.9768435955047607
aF-1.8683764934539795
aF-1.867069125175476
aF-1.8675905466079712
aF-1.8688220977783203
aF-1.870015263557434
aF3.919767379760742
aF3.92084002494812
aF-1.839174747467041
aF-1.8389835357666016
aF-1.8365283012390137
aF-1.8377339839935303
aF3.850978374481201
aF3.8486547470092773
aF-1.807489275932312
aF-1.8047454357147217
aF-1.8045076131820679
aF-1.8067853450775146
aF3.7228710651397705
aF3.7246508598327637
aF-1.7496743202209473
aF-1.7477445602416992
aF-1.743289589881897
aF-1.7455261945724487
aF-1.7466634511947632
aF3.6589834690093994
aF3.6560544967651367
aF-1.7172619104385376
aF-1.717443585395813
aF-1.7158410549163818
aF-1.7155945301055908
aF3.5897624492645264
aF3.5879523754119873
aF3.58713960647583
aF-1.6872776746749878
aF-1.6888244152069092
aF-1.6851712465286255
aF-1.6869885921478271
aF3.532975912094116
aF3.536104679107666
aF3.533902645111084
aF-1.6581364870071411
aF-1.6596544981002808
aF-1.6614786386489868
aF-1.6588503122329712
aF3.419543504714966
aF3.4191856384277344
aF3.4170563220977783
aF-1.603682279586792
aF-1.6045223474502563
aF-1.6056582927703857
aF-1.6061005592346191
aF-1.602871060371399
aF3.3567748069763184
aF3.35636305809021
aF-1.5766937732696533
aF-1.5768684148788452
aF-1.5757087469100952
aF-1.5741853713989258
aF-1.5742510557174683
aF3.294008493423462
aF3.291957139968872
aF-1.5494756698608398
aF-1.547409176826477
aF-1.5475401878356934
aF-1.5466762781143188
aF3.2313599586486816
aF3.2299981117248535
aF-1.5164308547973633
aF-1.5162712335586548
aF-1.5179649591445923
aF-1.5199438333511353
aF3.0982677936553955
aF3.1070315837860107
aF-1.459372878074646
aF-1.4613666534423828
aF-1.4618130922317505
aF-1.4576629400253296
aF-1.4583443403244019
aF3.0404348373413086
aF3.0481395721435547
aF-1.4336717128753662
aF-1.4353318214416504
aF-1.434570074081421
aF-1.4355714321136475
aF-1.4332435131072998
aF2.9986183643341064
aF3.008655309677124
aF-1.4098482131958008
aF-1.408534288406372
aF-1.4089545011520386
aF-1.406981110572815
aF-1.4079283475875854
aF2.9270668029785156
aF2.928528070449829
aF-1.3748478889465332
aF-1.3761500120162964
aF-1.3725205659866333
aF-1.37376070022583
aF2.8040597438812256
aF2.8023135662078857
aF2.803957223892212
aF-1.316246747970581
aF-1.3163825273513794
aF-1.3164888620376587
aF-1.3135097026824951
aF2.7520945072174072
aF2.7540533542633057
aF2.7522847652435303
aF-1.2902705669403076
aF-1.2893069982528687
aF-1.2910414934158325
aF-1.2924782037734985
aF2.6917521953582764
aF2.6900758743286133
aF2.690007209777832
aF-1.2611252069473267
aF-1.2607418298721313
aF-1.2608624696731567
aF-1.2593508958816528
aF-1.2602158784866333
aF2.6291396617889404
aF2.6274514198303223
aF-1.231222152709961
aF-1.230582594871521
aF-1.229129672050476
aF-1.2299987077713013
aF-1.2311040163040161
aF2.5324501991271973
aF2.535024642944336
aF-1.1904956102371216
aF-1.1913875341415405
aF-1.189212679862976
aF-1.1895432472229004
aF2.478898048400879
aF2.477306365966797
aF-1.1624971628189087
aF-1.1606428623199463
aF-1.1619805097579956
aF-1.1610609292984009
aF2.419917345046997
aF2.4198720455169678
aF-1.1326904296875
aF-1.1340192556381226
aF-1.1331405639648438
aF-1.1329630613327026
aF2.3642005920410156
aF2.3641586303710938
aF-1.1071327924728394
aF-1.106796383857727
aF-1.1066707372665405
aF-1.1077075004577637
aF-1.1082459688186646
aF2.304569721221924
aF2.306939125061035
aF-1.0810894966125488
aF-1.082148551940918
aF-1.0787779092788696
aF-1.080019474029541
aF-1.0812397003173828
aF-4.328452110290527
aF2.2515835762023926
aF2.250608444213867
aF-1.0534794330596924
aF-1.0542829036712646
aF-1.0525676012039185
aF-1.0526418685913086
aF-1.0538302659988403
aF-4.23773717880249
aF2.195338487625122
aF2.1939287185668945
aF-1.0283578634262085
aF-1.0286999940872192
aF-1.026804804801941
aF-1.0251027345657349
aF-1.0264817476272583
aF2.1346564292907715
aF2.1332857608795166
aF2.1329941749572754
aF-0.9978949427604675
aF-0.9988683462142944
aF-0.9998216032981873
aF-0.9994558691978455
aF2.0770671367645264
aF2.0768260955810547
aF2.0767626762390137
aF-0.973336398601532
aF-0.9742861986160278
aF-0.9718438386917114
aF-0.9727495312690735
aF1.954742193222046
aF1.953899621963501
aF1.954256534576416
aF-0.9156233072280884
aF-0.9169320464134216
aF-0.9160375595092773
aF-0.9153183698654175
aF-0.9137793183326721
aF1.8989989757537842
aF1.8981813192367554
aF1.8977283239364624
aF-0.889946699142456
aF-0.8910254836082458
aF-0.8899586200714111
aF-0.8882871270179749
aF-0.8877547979354858
aF1.8437620401382446
aF1.8472719192504883
aF1.8460497856140137
aF-0.8642876148223877
aF-0.8653347492218018
aF-0.8639166355133057
aF-0.8637948036193848
aF-0.864219605922699
aF1.7864861488342285
aF1.7875819206237793
aF-0.8381256461143494
aF-0.8367663025856018
aF-0.8375788331031799
aF-0.8363595008850098
aF-0.8375021815299988
aF1.6901092529296875
aF1.689351201057434
aF-0.79217129945755
aF-0.7919175624847412
aF-0.7911242842674255
aF-0.7904844284057617
aF1.6447386741638184
aF1.6431244611740112
aF-0.7706348299980164
aF-0.7693735957145691
aF-0.7701191306114197
aF-0.7696642279624939
aF1.5962549448013306
aF1.5969055891036987
aF-0.7483584880828857
aF-0.7474572062492371
aF-0.7478519082069397
aF-0.745595395565033
aF1.5352870225906372
aF1.535587191581726
aF-0.7199586033821106
aF-0.7176831960678101
aF-0.7183923721313477
aF-0.719245433807373
aF-0.7181795239448547
aF1.4339176416397095
aF1.432046890258789
aF-0.6701317429542542
aF-0.6708083152770996
aF-0.6708796620368958
aF-0.6694547533988953
aF-0.6687518954277039
aF1.371709942817688
aF1.3708022832870483
aF-0.6428489685058594
aF-0.6410889625549316
aF-0.642005205154419
aF-0.6429092288017273
aF-0.6430895328521729
aF1.3269870281219482
aF1.3248242139816284
aF-0.6209216117858887
aF-0.6212734580039978
aF-0.6207877993583679
aF-0.6213868260383606
aF-0.620320200920105
aF1.2764242887496948
aF1.276130199432373
aF-0.5976943373680115
aF-0.5973712205886841
aF-0.5975630283355713
aF-0.598271906375885
aF-0.5980395674705505
aF1.15720796585083
aF1.15694260597229
aF1.1566543579101562
aF-0.5419011116027832
aF-0.540644645690918
aF-0.5414174199104309
aF-0.5416979193687439
aF-0.5424493551254272
aF1.0750547647476196
aF1.0755079984664917
aF1.0759392976760864
aF-0.5028824210166931
aF-0.5036224126815796
aF-0.5028981566429138
aF-0.5031686425209045
aF-0.5019694566726685
aF1.0368486642837524
aF1.0380728244781494
aF1.03714120388031
aF-0.4838765561580658
aF-0.4844808578491211
aF-0.48485973477363586
aF-0.4851202368736267
aF-0.48504549264907837
aF0.9859946966171265
aF0.985556423664093
aF0.9853129982948303
aF-0.461251437664032
aF-0.46131405234336853
aF-0.46105751395225525
aF-0.46078959107398987
aF-0.4605102241039276
aF0.8842452764511108
aF0.8843328952789307
aF0.8839227557182312
aF-0.4126743972301483
aF-0.4132816791534424
aF-0.41332706809043884
aF-0.41364046931266785
aF-0.4133894741535187
aF0.8389658331871033
aF0.8394160866737366
aF0.8392096757888794
aF-0.3919135332107544
aF-0.3918764591217041
aF-0.3923570513725281
aF-0.3923022449016571
aF-0.3922382593154907
aF0.7945035696029663
aF0.7939779162406921
aF0.7942158579826355
aF-0.3717201352119446
aF-0.370854914188385
aF-0.37106001377105713
aF-0.37150704860687256
aF-0.3707786798477173
aF0.7458382248878479
aF0.7463213205337524
aF0.7458943128585815
aF-0.3484348654747009
aF-0.34871336817741394
aF-0.3489845395088196
aF-0.34862202405929565
aF-0.34895607829093933
aF0.6482934951782227
aF0.64829021692276
aF0.6478486061096191
aF-0.3029461205005646
aF-0.3031197190284729
aF-0.3032186031341553
aF-0.3032424747943878
aF0.5931159257888794
aF0.5927119255065918
aF-0.27697664499282837
aF-0.2770106792449951
aF-0.276477187871933
aF-0.276747465133667
aF-0.2770746350288391
aF0.5406149625778198
aF0.5407205820083618
aF-0.25292858481407166
aF-0.2530733048915863
aF-0.2523582875728607
aF-0.25243380665779114
aF0.48074498772621155
aF0.480154424905777
aF-0.2242916077375412
aF-0.22441954910755157
aF-0.2239353507757187
aF-0.2241540402173996
aF0.378126859664917
aF0.37786930799484253
aF-0.17641980946063995
aF-0.17632520198822021
aF-0.17654484510421753
aF-0.17636209726333618
aF-0.17645438015460968
aF0.32682979106903076
aF0.32664304971694946
aF-0.15231487154960632
aF-0.15243911743164062
aF-0.15256015956401825
aF-0.15236768126487732
aF-0.1525854617357254
aF0.2747620940208435
aF0.27457496523857117
aF-0.12837153673171997
aF-0.1284182071685791
aF-0.12852007150650024
aF-0.12847384810447693
aF-0.12822066247463226
aF0.20406007766723633
aF0.20419077575206757
aF-0.0951332300901413
aF-0.09527525305747986
aF-0.09541546553373337
aF-0.09525132924318314
aF-0.09519272297620773
aF0.10406365990638733
aF0.10399278253316879
aF-0.04865022003650665
aF-0.04862382262945175
aF-0.048618245869874954
aF-0.04854529723525047
aF-0.048537325114011765
aF0.06205381080508232
aF0.06201154366135597
aF-0.028944263234734535
aF-0.028948068618774414
aF-0.028977517038583755
aF-0.028960268944501877
aF-0.028968684375286102
aF0.02073059044778347
aF0.020739324390888214
aF-0.009654550813138485
aF-0.009660200215876102
aF-0.009652473032474518
aF-0.009653289802372456
aF-0.009664886631071568
aF-0.026318572461605072
aF-0.026300646364688873
aF0.012271779589354992
aF0.012278957292437553
aF0.01227749977260828
aF0.01228133775293827
aF0.01225412730127573
aF-0.12900102138519287
aF-0.12892743945121765
aF0.060153935104608536
aF0.06013428047299385
aF0.06014055758714676
aF0.060063112527132034
aF0.06009399890899658
aF-0.17999893426895142
aF-0.1799161583185196
aF0.08380163460969925
aF0.08390766382217407
aF0.08397379517555237
aF0.08392329514026642
aF0.08385154604911804
aF-0.22157081961631775
aF-0.22141990065574646
aF0.1033191904425621
aF0.10335589945316315
aF0.10315489768981934
aF0.10325737297534943
aF0.10316886752843857
aF-0.27260106801986694
aF-0.2725962996482849
aF0.12698593735694885
aF0.1270020604133606
aF0.12701524794101715
aF0.1267935335636139
aF0.12697477638721466
aF-0.382045179605484
aF-0.38178497552871704
aF0.17830193042755127
aF0.17779649794101715
aF0.1779768168926239
aF0.17823496460914612
aF-0.43373772501945496
aF-0.43445274233818054
aF0.20189450681209564
aF0.20205751061439514
aF0.20212385058403015
aF0.2023244947195053
aF0.20252099633216858
aF-0.48265907168388367
aF-0.4830264151096344
aF0.22499188780784607
aF0.22523008286952972
aF0.22474494576454163
aF0.2250242829322815
aF0.22499026358127594
aF-0.5325913429260254
aF-0.5322876572608948
aF-0.531973659992218
aF0.24757391214370728
aF0.24794352054595947
aF0.24791155755519867
aF0.24787373840808868
aF-0.6592530012130737
aF-0.6599760055541992
aF-0.6600993871688843
aF0.30789390206336975
aF0.30695751309394836
aF0.30685389041900635
aF0.30723515152931213
aF0.30732855200767517
aF-0.7143574357032776
aF-0.714743435382843
aF-0.7148767709732056
aF0.3332942724227905
aF0.3328877389431
aF0.33285239338874817
aF0.332504540681839
aF0.33207160234451294
aF-0.7559617161750793
aF-0.7566230297088623
aF-0.7569324970245361
aF0.35261765122413635
aF0.35226693749427795
aF0.3523901104927063
aF0.3521827161312103
aF0.3519664704799652
aF-0.7993455529212952
aF-0.7980026602745056
aF-0.799127995967865
aF0.37210267782211304
aF0.37215656042099
aF0.37203171849250793
aF0.37138667702674866
aF0.37149882316589355
aF-0.8837810754776001
aF-0.8847494721412659
aF0.41182443499565125
aF0.41028714179992676
aF0.4108055531978607
aF0.41056200861930847
aF0.41078004240989685
aF-0.9404740929603577
aF-0.9398335814476013
aF-0.9391751885414124
aF0.4362059235572815
aF0.43676650524139404
aF0.43721842765808105
aF0.43665948510169983
aF0.43679115176200867
aF-0.9954192042350769
aF-0.9952942728996277
aF-0.9959231019020081
aF0.46288907527923584
aF0.463272362947464
aF0.46226760745048523
aF0.4626293480396271
aF0.46266233921051025
aF-1.0376724004745483
aF-1.037772297859192
aF-1.0376211404800415
aF0.4825970232486725
aF0.48211419582366943
aF0.4827234148979187
aF0.48254865407943726
aF0.4816972017288208
aF-1.1475214958190918
aF-1.146867275238037
aF-1.1469546556472778
aF0.5333888530731201
aF0.5330991148948669
aF0.5332844257354736
aF0.5333354473114014
aF0.5336190462112427
aF-1.1928609609603882
aF-1.1929755210876465
aF-1.192669153213501
aF0.5557259917259216
aF0.5556800365447998
aF0.5543510913848877
aF0.5551669001579285
aF0.5540619492530823
aF-1.2353392839431763
aF-1.2351834774017334
aF-1.2348659038543701
aF0.5742117166519165
aF0.5746874809265137
aF0.5754139423370361
aF0.5737598538398743
aF0.5743283629417419
aF-1.295859456062317
aF-1.2965607643127441
aF-1.2960841655731201
aF0.6038346886634827
aF0.6029569506645203
aF0.6038571000099182
aF0.6040545105934143
aF0.6032690405845642
aF-1.3912066221237183
aF-1.3904132843017578
aF0.6474982500076294
aF0.647150456905365
aF0.647229790687561
aF0.6461098790168762
aF0.6457129716873169
aF-1.4475414752960205
aF-1.4465556144714355
aF-1.4460233449935913
aF0.6733204126358032
aF0.6731104850769043
aF0.6733458638191223
aF0.673412024974823
aF0.6728451251983643
aF-1.5012980699539185
aF-1.5006085634231567
aF-1.5003889799118042
aF0.6976110935211182
aF0.698189377784729
aF0.6982740759849548
aF0.6978631615638733
aF0.6977548003196716
aF-1.545180320739746
aF-1.5441279411315918
aF0.7176969051361084
aF0.7182921171188354
aF0.7180517315864563
aF0.7191084623336792
aF0.7170246243476868
aF-1.6372342109680176
aF-1.6361191272735596
aF0.760229766368866
aF0.7603410482406616
aF0.7593932151794434
aF0.7587723731994629
aF0.7583062648773193
aF-1.6860359907150269
aF-1.6847009658813477
aF0.7840273976325989
aF0.7828920483589172
aF0.7826294302940369
aF0.7825267910957336
aF0.78240567445755
aF-1.742450475692749
aF-1.7433841228485107
aF0.8098123669624329
aF0.8099313974380493
aF0.8098468780517578
aF0.8102982640266418
aF0.809434711933136
aF-1.7846620082855225
aF-1.7834464311599731
aF0.8313502669334412
aF0.8310771584510803
aF0.8309733867645264
aF0.831229567527771
aF0.8310869932174683
aF-1.8857934474945068
aF-1.8845089673995972
aF0.8751891255378723
aF0.8755179047584534
aF0.8750284910202026
aF0.8743174076080322
aF0.873984158039093
aF-1.9381287097930908
aF-1.936808705329895
aF0.8993998169898987
aF0.8999217748641968
aF0.8998078107833862
aF0.8992608189582825
aF-1.98460853099823
aF-1.9817243814468384
aF0.9210003018379211
aF0.9206962585449219
aF0.9212104082107544
aF0.920441746711731
aF-2.0431559085845947
aF-2.041764259338379
aF0.945970892906189
aF0.9465205669403076
aF0.9476975798606873
aF0.9477747082710266
aF0.947830080986023
aF-2.15755295753479
aF0.9996610283851624
aF1.0006986856460571
aF0.9983001351356506
aF0.9995200037956238
aF1.000491976737976
aF-2.2000012397766113
aF-2.199228048324585
aF1.0201494693756104
aF1.0205135345458984
aF1.0201584100723267
aF1.0195460319519043
aF1.0172786712646484
aF-2.2528717517852783
aF-2.254558563232422
aF1.044988989830017
aF1.04512357711792
aF1.0435683727264404
aF1.0448436737060547
aF1.0463371276855469
aF-2.3095555305480957
aF-2.311530590057373
aF1.0707520246505737
aF1.0706496238708496
aF1.0714950561523438
aF1.072805404663086
aF1.0694576501846313
aF1.1159377098083496
aF1.1168444156646729
aF1.118234395980835
aF1.1168099641799927
aF1.1178975105285645
aF1.1397591829299927
aF1.1388816833496094
aF1.1397829055786133
aF1.136521577835083
aF1.1378870010375977
aF1.1631395816802979
aF1.1643487215042114
aF1.1644783020019531
aF1.1651098728179932
aF1.166775107383728
aF1.1855624914169312
aF1.187064290046692
aF1.183711290359497
aF1.184890627861023
aF1.1857765913009644
aF-2.6589722633361816
aF-2.664179801940918
aF-2.662365198135376
aF1.2326927185058594
aF1.2325862646102905
aF1.2324506044387817
aF1.2342381477355957
aF1.230695128440857
aF-2.70528244972229
aF-2.7070302963256836
aF-2.708721876144409
aF1.253383755683899
aF1.2541251182556152
aF1.252859115600586
aF1.2538264989852905
aF1.2510794401168823
aF-2.7617087364196777
aF-2.7613842487335205
aF-2.76100492477417
aF1.2778639793395996
aF1.2789077758789062
aF1.2805016040802002
aF1.2765837907791138
aF1.2778300046920776
aF-2.814739942550659
aF-2.8134894371032715
aF-2.813101291656494
aF1.3024674654006958
aF1.3026539087295532
aF1.3028103113174438
aF1.3032306432724
aF1.3021507263183594
aF-2.9231972694396973
aF-2.923166036605835
aF-2.921492338180542
aF1.3556430339813232
aF1.3542903661727905
aF1.3538166284561157
aF1.3539202213287354
aF1.3546043634414673
aF-2.984527349472046
aF-2.9825525283813477
aF-2.979875087738037
aF1.3786200284957886
aF1.37847900390625
aF1.3786158561706543
aF1.3802754878997803
aF1.381596565246582
aF-3.0282323360443115
aF-3.029831647872925
aF-3.0254769325256348
aF1.4005730152130127
aF1.4001200199127197
aF1.4018360376358032
aF1.400057315826416
aF1.3991882801055908
aF-3.0842864513397217
aF-3.0832462310791016
aF-3.0838122367858887
aF1.4297149181365967
aF1.430219054222107
aF1.4278076887130737
aF1.4266396760940552
aF1.426077961921692
aF-3.1874263286590576
aF-3.1853175163269043
aF1.4754106998443604
aF1.4729706048965454
aF1.4718084335327148
aF1.4719302654266357
aF1.4713566303253174
aF-3.2416176795959473
aF-3.2454028129577637
aF1.501207709312439
aF1.5000699758529663
aF1.500905156135559
aF1.4980155229568481
aF1.5001249313354492
aF-3.2938599586486816
aF-3.2927427291870117
aF1.5237605571746826
aF1.5256632566452026
aF1.5237936973571777
aF1.5242680311203003
aF1.5253909826278687
aF-3.3441364765167236
aF-3.347659111022949
aF1.5440781116485596
aF1.5463504791259766
aF1.548593282699585
aF1.5445979833602905
aF1.5460821390151978
aF-3.462552309036255
aF-3.460631847381592
aF1.5998502969741821
aF1.601459264755249
aF1.6008989810943604
aF1.6003001928329468
aF-3.509793281555176
aF-3.507096529006958
aF1.6219680309295654
aF1.624320387840271
aF1.6226780414581299
aF1.6246024370193481
aF1.622519612312317
aF-3.5579328536987305
aF-3.5555787086486816
aF1.6415579319000244
aF1.6413885354995728
aF1.6426398754119873
aF1.6445876359939575
aF1.645039677619934
aF-3.617138624191284
aF-3.6158995628356934
aF1.668083667755127
aF1.67050302028656
aF1.6702994108200073
aF1.6704270839691162
aF1.6675472259521484
aF-3.723672866821289
aF-3.7244420051574707
aF-3.7231621742248535
aF1.7189350128173828
aF1.7180140018463135
aF1.72046959400177
aF1.7175666093826294
aF1.719568133354187
aF-3.792459011077881
aF-3.7904250621795654
aF-3.7919297218322754
aF1.7489042282104492
aF1.7498985528945923
aF1.7500832080841064
aF1.7490681409835815
aF1.749171495437622
aF-3.8471250534057617
aF-3.8507518768310547
aF-3.8494226932525635
aF1.7773630619049072
aF1.7748665809631348
aF1.7754489183425903
aF1.7752090692520142
aF1.7764956951141357
aF-3.9088692665100098
aF-3.9063591957092285
aF-3.9037744998931885
aF1.8011733293533325
aF1.801413893699646
aF1.8028010129928589
aF1.8049432039260864
aF1.801889419555664
a.